	.cpu generic+fp+simd
	.file	"hisi_mmc_bkops.c"
	.text
.Ltext0:
	.cfi_sections	.debug_frame
#APP
	.irp	num,0,1,2,3,4,5,6,7,8,9,10,11,12,13,14,15,16,17,18,19,20,21,22,23,24,25,26,27,28,29,30
	.equ	.L__reg_num_x\num, \num
	.endr
	.equ	.L__reg_num_xzr, 31

	.macro	mrs_s, rt, sreg
	.inst	0xd5200000|(\sreg)|(.L__reg_num_\rt)
	.endm

	.macro	msr_s, sreg, rt
	.inst	0xd5000000|(\sreg)|(.L__reg_num_\rt)
	.endm

#NO_APP
	.align	2
	.type	mmc_bkops_status_query, %function
mmc_bkops_status_query:
.LFB2494:
	.file 1 "/mnt/disk/jenkins/ci/workspace/chipset_EMUI8.2.0_docker/opensource/component_code/vendor/huawei/extra/build/build_script/kirin_kernel_release/kernel/drivers/mmc/core/hisi_mmc_bkops.c"
	.loc 1 14 0
	.cfi_startproc
.LVL0:
	stp	x29, x30, [sp, -48]!
	.cfi_def_cfa_offset 48
	.cfi_offset 29, -48
	.cfi_offset 30, -40
	add	x29, sp, 0
	.cfi_def_cfa_register 29
	stp	x19, x20, [sp,16]
	str	x21, [sp,32]
	.cfi_offset 19, -32
	.cfi_offset 20, -24
	.cfi_offset 21, -16
	.loc 1 17 0
	ldr	x21, [x0,1536]
.LVL1:
	.loc 1 22 0
	cbz	x0, .L7
	mov	x19, x0
	mov	x20, x1
	.loc 1 24 0
	bl	mmc_get_card
.LVL2:
	.loc 1 25 0
	ldr	x0, [x19]
	ldr	x0, [x0,1048]
	ldr	w0, [x0,708]
	tbz	x0, 6, .L8
.L3:
	.loc 1 56 0
	mov	x0, x19
	bl	mmc_put_card
.LVL3:
	.loc 1 60 0
	ldr	x21, [sp,32]
	.cfi_remember_state
	.cfi_restore 21
.LVL4:
	mov	w0, 0
	ldp	x19, x20, [sp,16]
	.cfi_restore 20
	.cfi_restore 19
.LVL5:
	ldp	x29, x30, [sp], 48
	.cfi_restore 30
	.cfi_restore 29
	.cfi_def_cfa 31, 0
	ret
.LVL6:
.L8:
	.cfi_restore_state
	.loc 1 29 0
	mov	x0, x19
	bl	mmc_read_bkops_status
.LVL7:
	mov	w2, w0
.LVL8:
	.loc 1 41 0
	cbnz	w0, .L9
	.loc 1 53 0
	ldrb	w0, [x19,1003]
	str	w0, [x20]
	.loc 1 56 0
	mov	x0, x19
	bl	mmc_put_card
.LVL9:
	.loc 1 60 0
	ldr	x21, [sp,32]
	.cfi_remember_state
	.cfi_restore 21
.LVL10:
	mov	w0, 0
	ldp	x19, x20, [sp,16]
	.cfi_restore 19
	.cfi_restore 20
.LVL11:
	ldp	x29, x30, [sp], 48
	.cfi_restore 29
	.cfi_restore 30
	.cfi_def_cfa 31, 0
	ret
.LVL12:
.L7:
	.cfi_restore_state
.LBB26:
.LBB27:
	.loc 1 22 0 discriminator 1
#APP
// 22 "/mnt/disk/jenkins/ci/workspace/chipset_EMUI8.2.0_docker/opensource/component_code/vendor/huawei/extra/build/build_script/kirin_kernel_release/kernel/drivers/mmc/core/hisi_mmc_bkops.c" 1
	.pushsection __bug_table,"a"
	.align 2
	0:	.long 1f - 0b
	.pushsection .rodata.str,"aMS",@progbits,1
2:	.string "/mnt/disk/jenkins/ci/workspace/chipset_EMUI8.2.0_docker/opensource/component_code/vendor/huawei/extra/build/build_script/kirin_kernel_release/kernel/drivers/mmc/core/hisi_mmc_bkops.c"
	.popsection
	.long 2b - 0b
	.short 22
	.short 0
	.popsection
1:	brk 2048
// 0 "" 2
.LVL13:
#NO_APP
.L9:
.LBE27:
.LBE26:
	.loc 1 42 0
	ldr	x0, [x19]
.LVL14:
.LBB28:
.LBB29:
	.file 2 "/mnt/disk/jenkins/ci/workspace/chipset_EMUI8.2.0_docker/opensource/component_code/vendor/huawei/extra/build/build_script/kirin_kernel_release/kernel/include/linux/device.h"
	.loc 2 854 0
	ldr	x1, [x0,88]
	cbz	x1, .L10
.L5:
.LBE29:
.LBE28:
	.loc 1 42 0 discriminator 1
	adrp	x0, .LC0
	add	x0, x0, :lo12:.LC0
	bl	printk
.LVL15:
	.loc 1 47 0
	ldr	w0, [x21,368]
	add	w0, w0, 1
	str	w0, [x21,368]
	.loc 1 48 0
	str	wzr, [x20]
	.loc 1 49 0
	b	.L3
.LVL16:
.L10:
	ldr	x1, [x0,24]
	b	.L5
	.cfi_endproc
.LFE2494:
	.size	mmc_bkops_status_query, .-mmc_bkops_status_query
	.align	2
	.global	mmc_start_bkops
	.type	mmc_start_bkops, %function
mmc_start_bkops:
.LFB2495:
	.loc 1 63 0
	.cfi_startproc
.LVL17:
	stp	x29, x30, [sp, -48]!
	.cfi_def_cfa_offset 48
	.cfi_offset 29, -48
	.cfi_offset 30, -40
	add	x29, sp, 0
	.cfi_def_cfa_register 29
	stp	x19, x20, [sp,16]
	str	x21, [sp,32]
	.cfi_offset 19, -32
	.cfi_offset 20, -24
	.cfi_offset 21, -16
	.loc 1 68 0
	mov	w20, 0
	.loc 1 67 0
	ldrb	w2, [x0,945]
	.loc 1 65 0
	ldr	x21, [x0,1536]
.LVL18:
	.loc 1 67 0
	cbz	w2, .L12
	.loc 1 67 0 is_stmt 0 discriminator 1
	ldr	w2, [x0,708]
	tbz	x2, 5, .L18
.L12:
	.loc 1 104 0 is_stmt 1
	mov	w0, w20
.LVL19:
	ldr	x21, [sp,32]
	.cfi_remember_state
	.cfi_restore 21
.LVL20:
	ldp	x19, x20, [sp,16]
	.cfi_restore 20
	.cfi_restore 19
.LVL21:
	ldp	x29, x30, [sp], 48
	.cfi_restore 30
	.cfi_restore 29
	.cfi_def_cfa 31, 0
	ret
.LVL22:
.L18:
	.cfi_restore_state
	.loc 1 70 0
	mov	w1, 1
.LVL23:
	mov	w2, -92
	mov	w3, w1
	mov	w4, 0
	mov	w5, 0
	mov	w6, w1
	mov	w7, 0
	mov	x19, x0
	bl	__mmc_switch
.LVL24:
	mov	w2, w0
.LVL25:
	.loc 1 80 0
	cbz	w0, .L13
	.loc 1 81 0
	ldr	x0, [x19]
.LBB30:
.LBB31:
	.loc 2 854 0
	ldr	x1, [x0,88]
	cbz	x1, .L19
.L14:
.LBE31:
.LBE30:
	.loc 1 81 0 discriminator 1
	adrp	x0, .LC1
	.loc 1 87 0
	mov	w20, w2
.LVL26:
	.loc 1 81 0 discriminator 1
	add	x0, x0, :lo12:.LC1
	bl	printk
.LVL27:
	.loc 1 86 0
	ldr	w0, [x21,372]
	add	w0, w0, 1
	str	w0, [x21,372]
	.loc 1 104 0
	mov	w0, w20
	ldp	x19, x20, [sp,16]
	.cfi_remember_state
	.cfi_restore 19
	.cfi_restore 20
.LVL28:
	ldr	x21, [sp,32]
	.cfi_restore 21
.LVL29:
	ldp	x29, x30, [sp], 48
	.cfi_restore 29
	.cfi_restore 30
	.cfi_def_cfa 31, 0
	ret
.LVL30:
.L13:
	.cfi_restore_state
	.loc 1 90 0
	ldr	w1, [x19,708]
	.loc 1 91 0
	adrp	x0, .LC2
.LVL31:
	add	x0, x0, :lo12:.LC2
	.loc 1 90 0
	orr	w1, w1, 32
	str	w1, [x19,708]
	.loc 1 91 0
	bl	printk
.LVL32:
	b	.L12
.LVL33:
.L19:
	ldr	x1, [x0,24]
	b	.L14
	.cfi_endproc
.LFE2495:
	.size	mmc_start_bkops, .-mmc_start_bkops
	.align	2
	.global	mmc_stop_bkops
	.type	mmc_stop_bkops, %function
mmc_stop_bkops:
.LFB2497:
	.loc 1 156 0
	.cfi_startproc
.LVL34:
	stp	x29, x30, [sp, -64]!
	.cfi_def_cfa_offset 64
	.cfi_offset 29, -64
	.cfi_offset 30, -56
	add	x29, sp, 0
	.cfi_def_cfa_register 29
	stp	x19, x20, [sp,16]
	stp	x21, x22, [sp,32]
	stp	x23, x24, [sp,48]
	.cfi_offset 19, -48
	.cfi_offset 20, -40
	.cfi_offset 21, -32
	.cfi_offset 22, -24
	.cfi_offset 23, -16
	.cfi_offset 24, -8
	.loc 1 156 0
	mov	x19, x0
	.loc 1 160 0
	ldr	x20, [x0,1536]
.LVL35:
.LBB38:
.LBB39:
	.file 3 "/mnt/disk/jenkins/ci/workspace/chipset_EMUI8.2.0_docker/opensource/component_code/vendor/huawei/extra/build/build_script/kirin_kernel_release/kernel/include/linux/timekeeping.h"
	.loc 3 212 0
	bl	ktime_get
.LVL36:
	mov	x21, x0
.LBE39:
.LBE38:
	.loc 1 168 0
	ldrb	w0, [x19,945]
	cbz	w0, .L21
	.loc 1 168 0 is_stmt 0 discriminator 1
	ldr	w0, [x19,708]
	tbnz	x0, 5, .L44
.LVL37:
.L21:
	.loc 1 208 0 is_stmt 1
	mov	w0, 0
	ldp	x19, x20, [sp,16]
	.cfi_remember_state
	.cfi_restore 20
	.cfi_restore 19
.LVL38:
	ldp	x21, x22, [sp,32]
	.cfi_restore 22
	.cfi_restore 21
.LVL39:
	ldp	x23, x24, [sp,48]
	.cfi_restore 24
	.cfi_restore 23
.LVL40:
	ldp	x29, x30, [sp], 64
	.cfi_restore 30
	.cfi_restore 29
	.cfi_def_cfa 31, 0
	ret
.LVL41:
.L44:
	.cfi_restore_state
.LBB40:
.LBB41:
	.loc 1 110 0
	ldr	x24, [x19,1536]
.LVL42:
	.loc 1 109 0
	mov	w22, 4
.LVL43:
	.loc 1 114 0
	ldr	x23, [x19]
.LVL44:
.L23:
	.loc 1 125 0
	mov	x0, x19
.LVL45:
	bl	mmc_interrupt_hpi
.LVL46:
	.loc 1 126 0
	cmn	w0, #22
	beq	.L22
	cbz	w0, .L22
	.loc 1 128 0
	sub	w22, w22, #1
	cmn	w22, #1
	bne	.L23
.L24:
	.loc 1 133 0
	adrp	x22, .LANCHOR0
.LVL47:
	adrp	x0, .LC3
.LVL48:
	add	x1, x22, :lo12:.LANCHOR0
	add	x0, x0, :lo12:.LC3
	mov	w2, 133
	bl	printk
.LVL49:
	.loc 1 138 0
	ldr	w0, [x24,376]
	add	w0, w0, 1
	str	w0, [x24,376]
	.loc 1 139 0
	ldr	x0, [x23,1400]
	ldr	x1, [x0,104]
	cbz	x1, .L28
	.loc 1 139 0 is_stmt 0 discriminator 1
	mov	x0, x23
	blr	x1
.LVL50:
	cbnz	w0, .L28
.LVL51:
.L26:
.LBE41:
.LBE40:
	.loc 1 186 0 is_stmt 1
	add	x20, x20, 328
.LVL52:
	ldr	w1, [x20,8]
	.loc 1 188 0
	mov	x0, x20
.LVL53:
	.loc 1 186 0
	add	w1, w1, 1
	str	w1, [x20,8]
	.loc 1 187 0
	ldr	w1, [x19,708]
	and	w1, w1, -33
	str	w1, [x19,708]
	.loc 1 188 0
	bl	hisi_bkops_update_dur
.LVL54:
	.loc 1 197 0
	adrp	x0, .LC5
	add	x0, x0, :lo12:.LC5
	bl	printk
.LVL55:
.LBB43:
.LBB44:
	.loc 3 212 0
	bl	ktime_get
.LVL56:
.LBE44:
.LBE43:
	.loc 1 199 0
	sub	x21, x0, x21
.LVL57:
	.loc 1 200 0
	ldr	x1, [x20,96]
	cmp	x21, x1
	bls	.L30
	.loc 1 201 0
	str	x21, [x20,96]
.L30:
	.loc 1 203 0
	ldr	w1, [x20,8]
	ldr	x2, [x20,104]
	sub	w0, w1, #1
	uxtw	x1, w1
	madd	x21, x0, x2, x21
.LVL58:
	udiv	x21, x21, x1
	.loc 1 202 0
	str	x21, [x20,104]
	.loc 1 207 0
	b	.L21
.LVL59:
.L28:
.LBB45:
.LBB42:
	.loc 1 140 0
	adrp	x0, .LC4
	add	x1, x22, :lo12:.LANCHOR0
	mov	w2, 140
	add	x0, x0, :lo12:.LC4
	bl	printk
.LVL60:
	.loc 1 141 0
	bl	dump_stack
.LVL61:
	b	.L26
.LVL62:
.L22:
	.loc 1 132 0
	cbz	w22, .L24
	.loc 1 132 0 is_stmt 0 discriminator 1
	cmn	w0, #22
	beq	.L26
	cbz	w0, .L26
	b	.L24
.LBE42:
.LBE45:
	.cfi_endproc
.LFE2497:
	.size	mmc_stop_bkops, .-mmc_stop_bkops
	.align	2
	.type	mmc_bkops_start_stop, %function
mmc_bkops_start_stop:
.LFB2498:
	.loc 1 211 0 is_stmt 1
	.cfi_startproc
.LVL63:
	stp	x29, x30, [sp, -32]!
	.cfi_def_cfa_offset 32
	.cfi_offset 29, -32
	.cfi_offset 30, -24
	add	x29, sp, 0
	.cfi_def_cfa_register 29
	stp	x19, x20, [sp,16]
	.cfi_offset 19, -16
	.cfi_offset 20, -8
	.loc 1 211 0
	mov	x19, x0
	.loc 1 215 0
	cbz	x0, .L50
	mov	w20, w1
	.loc 1 216 0
	bl	mmc_get_card
.LVL64:
	.loc 1 217 0
	ldr	x0, [x19]
	ldr	x0, [x0,1048]
	ldr	w0, [x0,708]
	tbnz	x0, 6, .L47
	.loc 1 221 0
	cbz	w20, .L51
	.loc 1 223 0
	cmp	w20, 1
	bne	.L49
	.loc 1 224 0
	mov	x0, x19
	mov	w1, 0
	bl	mmc_start_bkops
.LVL65:
.L47:
	.loc 1 230 0
	mov	x0, x19
	bl	mmc_put_card
.LVL66:
	.loc 1 234 0
	mov	w0, 0
	ldp	x19, x20, [sp,16]
	.cfi_remember_state
	.cfi_restore 20
	.cfi_restore 19
.LVL67:
	ldp	x29, x30, [sp], 32
	.cfi_restore 30
	.cfi_restore 29
	.cfi_def_cfa 31, 0
	ret
.LVL68:
.L51:
	.cfi_restore_state
	.loc 1 222 0
	mov	x0, x19
	bl	mmc_stop_bkops
.LVL69:
	.loc 1 230 0
	mov	x0, x19
	bl	mmc_put_card
.LVL70:
	.loc 1 234 0
	mov	w0, 0
	ldp	x19, x20, [sp,16]
	.cfi_remember_state
	.cfi_restore 19
	.cfi_restore 20
.LVL71:
	ldp	x29, x30, [sp], 32
	.cfi_restore 29
	.cfi_restore 30
	.cfi_def_cfa 31, 0
	ret
.LVL72:
.L50:
	.cfi_restore_state
.LBB48:
.LBB49:
	.loc 1 215 0 discriminator 1
#APP
// 215 "/mnt/disk/jenkins/ci/workspace/chipset_EMUI8.2.0_docker/opensource/component_code/vendor/huawei/extra/build/build_script/kirin_kernel_release/kernel/drivers/mmc/core/hisi_mmc_bkops.c" 1
	.pushsection __bug_table,"a"
	.align 2
	0:	.long 1f - 0b
	.pushsection .rodata.str,"aMS",@progbits,1
2:	.string "/mnt/disk/jenkins/ci/workspace/chipset_EMUI8.2.0_docker/opensource/component_code/vendor/huawei/extra/build/build_script/kirin_kernel_release/kernel/drivers/mmc/core/hisi_mmc_bkops.c"
	.popsection
	.long 2b - 0b
	.short 215
	.short 0
	.popsection
1:	brk 2048
// 0 "" 2
.LVL73:
#NO_APP
.L49:
.LBE49:
.LBE48:
	.loc 1 226 0
	adrp	x1, .LANCHOR0
	adrp	x0, .LC6
	add	x1, x1, :lo12:.LANCHOR0
	mov	w2, w20
	add	x1, x1, 24
	add	x0, x0, :lo12:.LC6
	bl	printk
.LVL74:
	b	.L47
	.cfi_endproc
.LFE2498:
	.size	mmc_bkops_start_stop, .-mmc_bkops_start_stop
	.align	2
	.global	hisi_mmc_is_bkops_needed
	.type	hisi_mmc_is_bkops_needed, %function
hisi_mmc_is_bkops_needed:
.LFB2499:
	.loc 1 259 0
	.cfi_startproc
.LVL75:
	stp	x29, x30, [sp, -80]!
	.cfi_def_cfa_offset 80
	.cfi_offset 29, -80
	.cfi_offset 30, -72
	mov	x3, x0
	.loc 1 267 0
	mov	x2, 9
	.loc 1 259 0
	add	x29, sp, 0
	.cfi_def_cfa_register 29
	stp	x19, x20, [sp,16]
	str	x21, [sp,32]
	.cfi_offset 19, -64
	.cfi_offset 20, -56
	.cfi_offset 21, -48
	.loc 1 259 0
	adrp	x20, __stack_chk_guard
	.loc 1 267 0
	adrp	x19, .LANCHOR1
	add	x0, x29, 56
.LVL76:
	ldr	w5, [x3,736]
	add	x19, x19, :lo12:.LANCHOR1
	ldr	w4, [x3,740]
	mov	x1, x19
	ldr	w3, [x3,744]
.LVL77:
	rev	w5, w5
	.loc 1 259 0
	ldr	x6, [x20,#:lo12:__stack_chk_guard]
	rev	w4, w4
	rev	w3, w3
	mov	w21, 1
	str	x6, [x29,72]
	.loc 1 263 0 discriminator 5
	str	w5, [x29,56]
	.loc 1 264 0 discriminator 5
	str	w4, [x29,60]
	.loc 1 265 0 discriminator 5
	str	w3, [x29,64]
	.loc 1 267 0
	bl	memcmp
.LVL78:
	.loc 1 268 0
	cbz	w0, .L53
	.loc 1 268 0 is_stmt 0 discriminator 2
	add	x0, x29, 56
	add	x1, x19, 16
	mov	x2, 9
	bl	memcmp
.LVL79:
	.loc 1 267 0 is_stmt 1
	cbz	w0, .L53
	.loc 1 269 0
	add	x0, x29, 56
	add	x1, x19, 32
	mov	x2, 9
	bl	memcmp
.LVL80:
	.loc 1 268 0 discriminator 3
	cmp	w0, wzr
	cset	w21, eq
.L53:
	.loc 1 270 0
	ldr	x2, [x29,72]
	mov	w0, w21
	ldr	x1, [x20,#:lo12:__stack_chk_guard]
	cmp	x2, x1
	bne	.L59
	ldp	x19, x20, [sp,16]
	.cfi_remember_state
	.cfi_restore 20
	.cfi_restore 19
	ldr	x21, [sp,32]
	.cfi_restore 21
	ldp	x29, x30, [sp], 80
	.cfi_restore 30
	.cfi_restore 29
	.cfi_def_cfa 31, 0
	ret
.L59:
	.cfi_restore_state
	bl	__stack_chk_fail
.LVL81:
	.cfi_endproc
.LFE2499:
	.size	hisi_mmc_is_bkops_needed, .-hisi_mmc_is_bkops_needed
	.align	2
	.global	hisi_mmc_manual_bkops_config
	.type	hisi_mmc_manual_bkops_config, %function
hisi_mmc_manual_bkops_config:
.LFB2500:
	.loc 1 272 0
	.cfi_startproc
.LVL82:
	stp	x29, x30, [sp, -48]!
	.cfi_def_cfa_offset 48
	.cfi_offset 29, -48
	.cfi_offset 30, -40
	add	x29, sp, 0
	.cfi_def_cfa_register 29
	stp	x19, x20, [sp,16]
	str	x21, [sp,32]
	.cfi_offset 19, -32
	.cfi_offset 20, -24
	.cfi_offset 21, -16
	.loc 1 272 0
	mov	x21, x0
	.loc 1 274 0
	ldr	x0, [x0,14776]
.LVL83:
	ldr	x20, [x0]
.LVL84:
	.loc 1 277 0
	bl	hisi_bkops_alloc
.LVL85:
	mov	x19, x0
.LVL86:
	.loc 1 278 0
	cbz	x0, .L63
	.loc 1 281 0
	adrp	x2, .LANCHOR1
	.loc 1 283 0
	ldr	x1, [x0,128]
	.loc 1 281 0
	add	x2, x2, :lo12:.LANCHOR1
	.loc 1 280 0
	mov	w4, 1
	.loc 1 281 0
	add	x3, x2, 48
	.loc 1 283 0
	orr	x1, x1, 8
	.loc 1 281 0
	str	x3, [x0,8]
	.loc 1 284 0
	mov	x3, 3600
	.loc 1 283 0
	str	x1, [x0,128]
	.loc 1 286 0
	add	x2, x2, 64
	.loc 1 280 0
	str	w4, [x0]
	.loc 1 286 0
	mov	w1, 4
	.loc 1 282 0
	str	x20, [x0,16]
	.loc 1 284 0
	str	x3, [x0,280]
	.loc 1 285 0
	str	x0, [x20,1536]
	.loc 1 286 0
	bl	hisi_bkops_set_status_info
.LVL87:
	cbnz	w0, .L63
	.loc 1 289 0
	ldr	x2, [x20,1232]
	mov	x1, x19
	mov	x0, x21
	bl	hisi_bkops_enable
.LVL88:
	.loc 1 290 0
	ldr	x21, [sp,32]
	.cfi_remember_state
	.cfi_restore 21
.LVL89:
	ldp	x19, x20, [sp,16]
	.cfi_restore 20
	.cfi_restore 19
.LVL90:
	ldp	x29, x30, [sp], 48
	.cfi_restore 30
	.cfi_restore 29
	.cfi_def_cfa 31, 0
	ret
.LVL91:
.L63:
	.cfi_restore_state
	.loc 1 279 0
	mov	w0, -1
	.loc 1 290 0
	ldr	x21, [sp,32]
	.cfi_restore 21
.LVL92:
	ldp	x19, x20, [sp,16]
	.cfi_restore 19
	.cfi_restore 20
.LVL93:
	ldp	x29, x30, [sp], 48
	.cfi_restore 29
	.cfi_restore 30
	.cfi_def_cfa 31, 0
	ret
	.cfi_endproc
.LFE2500:
	.size	hisi_mmc_manual_bkops_config, .-hisi_mmc_manual_bkops_config
	.align	2
	.global	hisi_mmc_enable_hpi_for_micron
	.type	hisi_mmc_enable_hpi_for_micron, %function
hisi_mmc_enable_hpi_for_micron:
.LFB2501:
	.loc 1 293 0
	.cfi_startproc
.LVL94:
	stp	x29, x30, [sp, -32]!
	.cfi_def_cfa_offset 32
	.cfi_offset 29, -32
	.cfi_offset 30, -24
	add	x29, sp, 0
	.cfi_def_cfa_register 29
	.loc 1 293 0
	str	x1, [x29,24]
	.loc 1 294 0
	bl	hisi_mmc_is_bkops_needed
.LVL95:
	uxtb	w0, w0
	cbz	w0, .L64
	.loc 1 295 0
	ldr	x1, [x29,24]
.LVL96:
	strb	wzr, [x1]
.L64:
	.loc 1 296 0
	ldp	x29, x30, [sp], 32
	.cfi_restore 30
	.cfi_restore 29
	.cfi_def_cfa 31, 0
	ret
	.cfi_endproc
.LFE2501:
	.size	hisi_mmc_enable_hpi_for_micron, .-hisi_mmc_enable_hpi_for_micron
	.global	mmc_bkops_ops
	.section	.rodata
	.align	3
.LANCHOR0 = . + 0
	.type	__func__.31110, %object
	.size	__func__.31110, 18
__func__.31110:
	.string	"hisi_mmc_send_hpi"
	.zero	6
	.type	__func__.31127, %object
	.size	__func__.31127, 21
__func__.31127:
	.string	"mmc_bkops_start_stop"
	.data
	.align	3
.LANCHOR1 = . + 0
	.type	micron_mmc_bkops_cid1, %object
	.size	micron_mmc_bkops_cid1, 9
micron_mmc_bkops_cid1:
	.byte	19
	.byte	1
	.byte	78
	.byte	81
	.byte	51
	.byte	74
	.byte	57
	.byte	55
	.byte	86
	.zero	7
	.type	micron_mmc_bkops_cid2, %object
	.size	micron_mmc_bkops_cid2, 9
micron_mmc_bkops_cid2:
	.byte	19
	.byte	1
	.byte	78
	.byte	81
	.byte	51
	.byte	74
	.byte	57
	.byte	54
	.byte	86
	.zero	7
	.type	micron_mmc_bkops_cid3, %object
	.size	micron_mmc_bkops_cid3, 9
micron_mmc_bkops_cid3:
	.byte	19
	.byte	1
	.byte	78
	.byte	81
	.byte	51
	.byte	74
	.byte	57
	.byte	54
	.byte	82
	.zero	7
	.type	mmc_bkops_ops, %object
	.size	mmc_bkops_ops, 16
mmc_bkops_ops:
	.xword	mmc_bkops_start_stop
	.xword	mmc_bkops_status_query
	.type	bkops_status_str_mmc, %object
	.size	bkops_status_str_mmc, 32
bkops_status_str_mmc:
	.xword	.LC7
	.xword	.LC8
	.xword	.LC9
	.xword	.LC10
	.section	.rodata.str1.8,"aMS",%progbits,1
	.align	3
.LC0:
	.string	"\0013%s: Failed to read bkops status: %d\n"
	.zero	1
.LC1:
	.string	"\0013%s: Error %d starting bkops\n"
	.zero	1
.LC2:
	.string	"\0016BKOPS started.\n"
	.zero	6
.LC3:
	.string	"\0013%s %d HPI failed! do hisi_mmc_reset\n"
	.zero	1
.LC4:
	.string	"\0013%s %d hisi_mmc_reset Failed!\n"
.LC5:
	.string	"\0016BKOPS stoped.\n"
	.zero	7
.LC6:
	.string	"\0013%s Invalid start value: %d\n"
	.zero	2
.LC7:
	.string	"bkops none"
	.zero	5
.LC8:
	.string	"bkops non critical"
	.zero	5
.LC9:
	.string	"bkops perf impacted"
	.zero	4
.LC10:
	.string	"bkops critical"
	.text
.Letext0:
	.file 4 "/mnt/disk/jenkins/ci/workspace/chipset_EMUI8.2.0_docker/opensource/component_code/vendor/huawei/extra/build/build_script/kirin_kernel_release/kernel/include/uapi/asm-generic/int-ll64.h"
	.file 5 "/mnt/disk/jenkins/ci/workspace/chipset_EMUI8.2.0_docker/opensource/component_code/vendor/huawei/extra/build/build_script/kirin_kernel_release/kernel/include/asm-generic/int-ll64.h"
	.file 6 "/mnt/disk/jenkins/ci/workspace/chipset_EMUI8.2.0_docker/opensource/component_code/vendor/huawei/extra/build/build_script/kirin_kernel_release/kernel/include/uapi/asm-generic/posix_types.h"
	.file 7 "/mnt/disk/jenkins/ci/workspace/chipset_EMUI8.2.0_docker/opensource/component_code/vendor/huawei/extra/build/build_script/kirin_kernel_release/kernel/include/uapi/linux/types.h"
	.file 8 "/mnt/disk/jenkins/ci/workspace/chipset_EMUI8.2.0_docker/opensource/component_code/vendor/huawei/extra/build/build_script/kirin_kernel_release/kernel/include/linux/types.h"
	.file 9 "/mnt/disk/jenkins/ci/workspace/chipset_EMUI8.2.0_docker/opensource/component_code/vendor/huawei/extra/build/build_script/kirin_kernel_release/kernel/include/linux/capability.h"
	.file 10 "/mnt/disk/jenkins/ci/workspace/chipset_EMUI8.2.0_docker/opensource/component_code/vendor/huawei/extra/build/build_script/kirin_kernel_release/kernel/include/linux/thread_info.h"
	.file 11 "/mnt/disk/jenkins/ci/workspace/chipset_EMUI8.2.0_docker/opensource/component_code/vendor/huawei/extra/build/build_script/kirin_kernel_release/kernel/include/uapi/linux/time.h"
	.file 12 "/mnt/disk/jenkins/ci/workspace/chipset_EMUI8.2.0_docker/opensource/component_code/vendor/huawei/extra/build/build_script/kirin_kernel_release/kernel/arch/arm64/include/asm/compat.h"
	.file 13 "/mnt/disk/jenkins/ci/workspace/chipset_EMUI8.2.0_docker/opensource/component_code/vendor/huawei/extra/build/build_script/kirin_kernel_release/kernel/include/linux/sched.h"
	.file 14 "/mnt/disk/jenkins/ci/workspace/chipset_EMUI8.2.0_docker/opensource/component_code/vendor/huawei/extra/build/build_script/kirin_kernel_release/kernel/arch/arm64/include/uapi/asm/ptrace.h"
	.file 15 "/mnt/disk/jenkins/ci/workspace/chipset_EMUI8.2.0_docker/opensource/component_code/vendor/huawei/extra/build/build_script/kirin_kernel_release/kernel/arch/arm64/include/asm/spinlock_types.h"
	.file 16 "/mnt/disk/jenkins/ci/workspace/chipset_EMUI8.2.0_docker/opensource/component_code/vendor/huawei/extra/build/build_script/kirin_kernel_release/kernel/include/linux/spinlock_types.h"
	.file 17 "/mnt/disk/jenkins/ci/workspace/chipset_EMUI8.2.0_docker/opensource/component_code/vendor/huawei/extra/build/build_script/kirin_kernel_release/kernel/include/linux/rwlock_types.h"
	.file 18 "/mnt/disk/jenkins/ci/workspace/chipset_EMUI8.2.0_docker/opensource/component_code/vendor/huawei/extra/build/build_script/kirin_kernel_release/kernel/arch/arm64/include/asm/fpsimd.h"
	.file 19 "/mnt/disk/jenkins/ci/workspace/chipset_EMUI8.2.0_docker/opensource/component_code/vendor/huawei/extra/build/build_script/kirin_kernel_release/kernel/arch/arm64/include/asm/processor.h"
	.file 20 "/mnt/disk/jenkins/ci/workspace/chipset_EMUI8.2.0_docker/opensource/component_code/vendor/huawei/extra/build/build_script/kirin_kernel_release/kernel/include/asm-generic/atomic-long.h"
	.file 21 "/mnt/disk/jenkins/ci/workspace/chipset_EMUI8.2.0_docker/opensource/component_code/vendor/huawei/extra/build/build_script/kirin_kernel_release/kernel/include/linux/seqlock.h"
	.file 22 "/mnt/disk/jenkins/ci/workspace/chipset_EMUI8.2.0_docker/opensource/component_code/vendor/huawei/extra/build/build_script/kirin_kernel_release/kernel/include/linux/plist.h"
	.file 23 "/mnt/disk/jenkins/ci/workspace/chipset_EMUI8.2.0_docker/opensource/component_code/vendor/huawei/extra/build/build_script/kirin_kernel_release/kernel/include/linux/cpumask.h"
	.file 24 "/mnt/disk/jenkins/ci/workspace/chipset_EMUI8.2.0_docker/opensource/component_code/vendor/huawei/extra/build/build_script/kirin_kernel_release/kernel/include/linux/wait.h"
	.file 25 "/mnt/disk/jenkins/ci/workspace/chipset_EMUI8.2.0_docker/opensource/component_code/vendor/huawei/extra/build/build_script/kirin_kernel_release/kernel/include/linux/completion.h"
	.file 26 "/mnt/disk/jenkins/ci/workspace/chipset_EMUI8.2.0_docker/opensource/component_code/vendor/huawei/extra/build/build_script/kirin_kernel_release/kernel/include/linux/ktime.h"
	.file 27 "/mnt/disk/jenkins/ci/workspace/chipset_EMUI8.2.0_docker/opensource/component_code/vendor/huawei/extra/build/build_script/kirin_kernel_release/kernel/include/linux/rbtree.h"
	.file 28 "/mnt/disk/jenkins/ci/workspace/chipset_EMUI8.2.0_docker/opensource/component_code/vendor/huawei/extra/build/build_script/kirin_kernel_release/kernel/include/linux/nodemask.h"
	.file 29 "/mnt/disk/jenkins/ci/workspace/chipset_EMUI8.2.0_docker/opensource/component_code/vendor/huawei/extra/build/build_script/kirin_kernel_release/kernel/include/linux/osq_lock.h"
	.file 30 "/mnt/disk/jenkins/ci/workspace/chipset_EMUI8.2.0_docker/opensource/component_code/vendor/huawei/extra/build/build_script/kirin_kernel_release/kernel/include/linux/rwsem.h"
	.file 31 "/mnt/disk/jenkins/ci/workspace/chipset_EMUI8.2.0_docker/opensource/component_code/vendor/huawei/extra/build/build_script/kirin_kernel_release/kernel/include/linux/mm_types.h"
	.file 32 "/mnt/disk/jenkins/ci/workspace/chipset_EMUI8.2.0_docker/opensource/component_code/vendor/huawei/extra/build/build_script/kirin_kernel_release/kernel/include/linux/lockdep.h"
	.file 33 "/mnt/disk/jenkins/ci/workspace/chipset_EMUI8.2.0_docker/opensource/component_code/vendor/huawei/extra/build/build_script/kirin_kernel_release/kernel/include/linux/uprobes.h"
	.file 34 "/mnt/disk/jenkins/ci/workspace/chipset_EMUI8.2.0_docker/opensource/component_code/vendor/huawei/extra/build/build_script/kirin_kernel_release/kernel/include/linux/timer.h"
	.file 35 "/mnt/disk/jenkins/ci/workspace/chipset_EMUI8.2.0_docker/opensource/component_code/vendor/huawei/extra/build/build_script/kirin_kernel_release/kernel/include/linux/workqueue.h"
	.file 36 "/mnt/disk/jenkins/ci/workspace/chipset_EMUI8.2.0_docker/opensource/component_code/vendor/huawei/extra/build/build_script/kirin_kernel_release/kernel/arch/arm64/include/asm/pgtable-types.h"
	.file 37 "/mnt/disk/jenkins/ci/workspace/chipset_EMUI8.2.0_docker/opensource/component_code/vendor/huawei/extra/build/build_script/kirin_kernel_release/kernel/arch/arm64/include/asm/mmu.h"
	.file 38 "/mnt/disk/jenkins/ci/workspace/chipset_EMUI8.2.0_docker/opensource/component_code/vendor/huawei/extra/build/build_script/kirin_kernel_release/kernel/include/linux/fs.h"
	.file 39 "/mnt/disk/jenkins/ci/workspace/chipset_EMUI8.2.0_docker/opensource/component_code/vendor/huawei/extra/build/build_script/kirin_kernel_release/kernel/include/linux/mm.h"
	.file 40 "/mnt/disk/jenkins/ci/workspace/chipset_EMUI8.2.0_docker/opensource/component_code/vendor/huawei/extra/build/build_script/kirin_kernel_release/kernel/include/asm-generic/cputime_jiffies.h"
	.file 41 "/mnt/disk/jenkins/ci/workspace/chipset_EMUI8.2.0_docker/opensource/component_code/vendor/huawei/extra/build/build_script/kirin_kernel_release/kernel/include/linux/llist.h"
	.file 42 "/mnt/disk/jenkins/ci/workspace/chipset_EMUI8.2.0_docker/opensource/component_code/vendor/huawei/extra/build/build_script/kirin_kernel_release/kernel/include/linux/smp.h"
	.file 43 "/mnt/disk/jenkins/ci/workspace/chipset_EMUI8.2.0_docker/opensource/component_code/vendor/huawei/extra/build/build_script/kirin_kernel_release/kernel/arch/arm64/include/asm/smp.h"
	.file 44 "/mnt/disk/jenkins/ci/workspace/chipset_EMUI8.2.0_docker/opensource/component_code/vendor/huawei/extra/build/build_script/kirin_kernel_release/kernel/include/linux/uidgid.h"
	.file 45 "/mnt/disk/jenkins/ci/workspace/chipset_EMUI8.2.0_docker/opensource/component_code/vendor/huawei/extra/build/build_script/kirin_kernel_release/kernel/include/uapi/asm-generic/signal.h"
	.file 46 "/mnt/disk/jenkins/ci/workspace/chipset_EMUI8.2.0_docker/opensource/component_code/vendor/huawei/extra/build/build_script/kirin_kernel_release/kernel/include/uapi/asm-generic/signal-defs.h"
	.file 47 "/mnt/disk/jenkins/ci/workspace/chipset_EMUI8.2.0_docker/opensource/component_code/vendor/huawei/extra/build/build_script/kirin_kernel_release/kernel/include/uapi/asm-generic/siginfo.h"
	.file 48 "/mnt/disk/jenkins/ci/workspace/chipset_EMUI8.2.0_docker/opensource/component_code/vendor/huawei/extra/build/build_script/kirin_kernel_release/kernel/include/linux/signal.h"
	.file 49 "/mnt/disk/jenkins/ci/workspace/chipset_EMUI8.2.0_docker/opensource/component_code/vendor/huawei/extra/build/build_script/kirin_kernel_release/kernel/include/linux/pid.h"
	.file 50 "/mnt/disk/jenkins/ci/workspace/chipset_EMUI8.2.0_docker/opensource/component_code/vendor/huawei/extra/build/build_script/kirin_kernel_release/kernel/include/linux/mmzone.h"
	.file 51 "/mnt/disk/jenkins/ci/workspace/chipset_EMUI8.2.0_docker/opensource/component_code/vendor/huawei/extra/build/build_script/kirin_kernel_release/kernel/include/linux/mutex.h"
	.file 52 "/mnt/disk/jenkins/ci/workspace/chipset_EMUI8.2.0_docker/opensource/component_code/vendor/huawei/extra/build/build_script/kirin_kernel_release/kernel/include/linux/notifier.h"
	.file 53 "/mnt/disk/jenkins/ci/workspace/chipset_EMUI8.2.0_docker/opensource/component_code/vendor/huawei/extra/build/build_script/kirin_kernel_release/kernel/include/linux/percpu_counter.h"
	.file 54 "/mnt/disk/jenkins/ci/workspace/chipset_EMUI8.2.0_docker/opensource/component_code/vendor/huawei/extra/build/build_script/kirin_kernel_release/kernel/include/linux/seccomp.h"
	.file 55 "/mnt/disk/jenkins/ci/workspace/chipset_EMUI8.2.0_docker/opensource/component_code/vendor/huawei/extra/build/build_script/kirin_kernel_release/kernel/include/uapi/linux/resource.h"
	.file 56 "/mnt/disk/jenkins/ci/workspace/chipset_EMUI8.2.0_docker/opensource/component_code/vendor/huawei/extra/build/build_script/kirin_kernel_release/kernel/include/linux/timerqueue.h"
	.file 57 "/mnt/disk/jenkins/ci/workspace/chipset_EMUI8.2.0_docker/opensource/component_code/vendor/huawei/extra/build/build_script/kirin_kernel_release/kernel/include/linux/hrtimer.h"
	.file 58 "/mnt/disk/jenkins/ci/workspace/chipset_EMUI8.2.0_docker/opensource/component_code/vendor/huawei/extra/build/build_script/kirin_kernel_release/kernel/include/linux/task_io_accounting.h"
	.file 59 "/mnt/disk/jenkins/ci/workspace/chipset_EMUI8.2.0_docker/opensource/component_code/vendor/huawei/extra/build/build_script/kirin_kernel_release/kernel/include/linux/assoc_array.h"
	.file 60 "/mnt/disk/jenkins/ci/workspace/chipset_EMUI8.2.0_docker/opensource/component_code/vendor/huawei/extra/build/build_script/kirin_kernel_release/kernel/include/linux/key.h"
	.file 61 "/mnt/disk/jenkins/ci/workspace/chipset_EMUI8.2.0_docker/opensource/component_code/vendor/huawei/extra/build/build_script/kirin_kernel_release/kernel/include/linux/cred.h"
	.file 62 "/mnt/disk/jenkins/ci/workspace/chipset_EMUI8.2.0_docker/opensource/component_code/vendor/huawei/extra/build/build_script/kirin_kernel_release/kernel/include/linux/idr.h"
	.file 63 "/mnt/disk/jenkins/ci/workspace/chipset_EMUI8.2.0_docker/opensource/component_code/vendor/huawei/extra/build/build_script/kirin_kernel_release/kernel/include/linux/percpu-refcount.h"
	.file 64 "/mnt/disk/jenkins/ci/workspace/chipset_EMUI8.2.0_docker/opensource/component_code/vendor/huawei/extra/build/build_script/kirin_kernel_release/kernel/include/linux/rcu_sync.h"
	.file 65 "/mnt/disk/jenkins/ci/workspace/chipset_EMUI8.2.0_docker/opensource/component_code/vendor/huawei/extra/build/build_script/kirin_kernel_release/kernel/include/linux/percpu-rwsem.h"
	.file 66 "/mnt/disk/jenkins/ci/workspace/chipset_EMUI8.2.0_docker/opensource/component_code/vendor/huawei/extra/build/build_script/kirin_kernel_release/kernel/include/linux/cgroup-defs.h"
	.file 67 "/mnt/disk/jenkins/ci/workspace/chipset_EMUI8.2.0_docker/opensource/component_code/vendor/huawei/extra/build/build_script/kirin_kernel_release/kernel/include/linux/kernfs.h"
	.file 68 "/mnt/disk/jenkins/ci/workspace/chipset_EMUI8.2.0_docker/opensource/component_code/vendor/huawei/extra/build/build_script/kirin_kernel_release/kernel/include/linux/seq_file.h"
	.file 69 "/mnt/disk/jenkins/ci/workspace/chipset_EMUI8.2.0_docker/opensource/component_code/vendor/huawei/extra/build/build_script/kirin_kernel_release/kernel/include/linux/bio.h"
	.file 70 "/mnt/disk/jenkins/ci/workspace/chipset_EMUI8.2.0_docker/opensource/component_code/vendor/huawei/extra/build/build_script/kirin_kernel_release/kernel/include/linux/blkdev.h"
	.file 71 "/mnt/disk/jenkins/ci/workspace/chipset_EMUI8.2.0_docker/opensource/component_code/vendor/huawei/extra/build/build_script/kirin_kernel_release/kernel/include/linux/backing-dev-defs.h"
	.file 72 "/mnt/disk/jenkins/ci/workspace/chipset_EMUI8.2.0_docker/opensource/component_code/vendor/huawei/extra/build/build_script/kirin_kernel_release/kernel/include/linux/iocontext.h"
	.file 73 "/mnt/disk/jenkins/ci/workspace/chipset_EMUI8.2.0_docker/opensource/component_code/vendor/huawei/extra/build/build_script/kirin_kernel_release/kernel/include/linux/kobject_ns.h"
	.file 74 "/mnt/disk/jenkins/ci/workspace/chipset_EMUI8.2.0_docker/opensource/component_code/vendor/huawei/extra/build/build_script/kirin_kernel_release/kernel/include/linux/stat.h"
	.file 75 "/mnt/disk/jenkins/ci/workspace/chipset_EMUI8.2.0_docker/opensource/component_code/vendor/huawei/extra/build/build_script/kirin_kernel_release/kernel/include/linux/sysfs.h"
	.file 76 "/mnt/disk/jenkins/ci/workspace/chipset_EMUI8.2.0_docker/opensource/component_code/vendor/huawei/extra/build/build_script/kirin_kernel_release/kernel/include/linux/kobject.h"
	.file 77 "/mnt/disk/jenkins/ci/workspace/chipset_EMUI8.2.0_docker/opensource/component_code/vendor/huawei/extra/build/build_script/kirin_kernel_release/kernel/include/linux/kref.h"
	.file 78 "/mnt/disk/jenkins/ci/workspace/chipset_EMUI8.2.0_docker/opensource/component_code/vendor/huawei/extra/build/build_script/kirin_kernel_release/kernel/include/linux/klist.h"
	.file 79 "/mnt/disk/jenkins/ci/workspace/chipset_EMUI8.2.0_docker/opensource/component_code/vendor/huawei/extra/build/build_script/kirin_kernel_release/kernel/include/linux/list_bl.h"
	.file 80 "/mnt/disk/jenkins/ci/workspace/chipset_EMUI8.2.0_docker/opensource/component_code/vendor/huawei/extra/build/build_script/kirin_kernel_release/kernel/include/linux/lockref.h"
	.file 81 "/mnt/disk/jenkins/ci/workspace/chipset_EMUI8.2.0_docker/opensource/component_code/vendor/huawei/extra/build/build_script/kirin_kernel_release/kernel/include/linux/dcache.h"
	.file 82 "/mnt/disk/jenkins/ci/workspace/chipset_EMUI8.2.0_docker/opensource/component_code/vendor/huawei/extra/build/build_script/kirin_kernel_release/kernel/include/linux/path.h"
	.file 83 "/mnt/disk/jenkins/ci/workspace/chipset_EMUI8.2.0_docker/opensource/component_code/vendor/huawei/extra/build/build_script/kirin_kernel_release/kernel/include/linux/shrinker.h"
	.file 84 "/mnt/disk/jenkins/ci/workspace/chipset_EMUI8.2.0_docker/opensource/component_code/vendor/huawei/extra/build/build_script/kirin_kernel_release/kernel/include/linux/list_lru.h"
	.file 85 "/mnt/disk/jenkins/ci/workspace/chipset_EMUI8.2.0_docker/opensource/component_code/vendor/huawei/extra/build/build_script/kirin_kernel_release/kernel/include/linux/radix-tree.h"
	.file 86 "/mnt/disk/jenkins/ci/workspace/chipset_EMUI8.2.0_docker/opensource/component_code/vendor/huawei/extra/build/build_script/kirin_kernel_release/kernel/include/linux/semaphore.h"
	.file 87 "/mnt/disk/jenkins/ci/workspace/chipset_EMUI8.2.0_docker/opensource/component_code/vendor/huawei/extra/build/build_script/kirin_kernel_release/kernel/include/uapi/linux/fiemap.h"
	.file 88 "/mnt/disk/jenkins/ci/workspace/chipset_EMUI8.2.0_docker/opensource/component_code/vendor/huawei/extra/build/build_script/kirin_kernel_release/kernel/include/linux/migrate_mode.h"
	.file 89 "/mnt/disk/jenkins/ci/workspace/chipset_EMUI8.2.0_docker/opensource/component_code/vendor/huawei/extra/build/build_script/kirin_kernel_release/kernel/include/linux/blk_types.h"
	.file 90 "/mnt/disk/jenkins/ci/workspace/chipset_EMUI8.2.0_docker/opensource/component_code/vendor/huawei/extra/build/build_script/kirin_kernel_release/kernel/include/linux/quota.h"
	.file 91 "/mnt/disk/jenkins/ci/workspace/chipset_EMUI8.2.0_docker/opensource/component_code/vendor/huawei/extra/build/build_script/kirin_kernel_release/kernel/include/linux/projid.h"
	.file 92 "/mnt/disk/jenkins/ci/workspace/chipset_EMUI8.2.0_docker/opensource/component_code/vendor/huawei/extra/build/build_script/kirin_kernel_release/kernel/include/linux/genhd.h"
	.file 93 "/mnt/disk/jenkins/ci/workspace/chipset_EMUI8.2.0_docker/opensource/component_code/vendor/huawei/extra/build/build_script/kirin_kernel_release/kernel/include/linux/nfs_fs_i.h"
	.file 94 "/mnt/disk/jenkins/ci/workspace/chipset_EMUI8.2.0_docker/opensource/component_code/vendor/huawei/extra/build/build_script/kirin_kernel_release/kernel/include/linux/pinctrl/devinfo.h"
	.file 95 "/mnt/disk/jenkins/ci/workspace/chipset_EMUI8.2.0_docker/opensource/component_code/vendor/huawei/extra/build/build_script/kirin_kernel_release/kernel/include/linux/pm.h"
	.file 96 "/mnt/disk/jenkins/ci/workspace/chipset_EMUI8.2.0_docker/opensource/component_code/vendor/huawei/extra/build/build_script/kirin_kernel_release/kernel/include/linux/pm_wakeup.h"
	.file 97 "/mnt/disk/jenkins/ci/workspace/chipset_EMUI8.2.0_docker/opensource/component_code/vendor/huawei/extra/build/build_script/kirin_kernel_release/kernel/arch/arm64/include/asm/device.h"
	.file 98 "/mnt/disk/jenkins/ci/workspace/chipset_EMUI8.2.0_docker/opensource/component_code/vendor/huawei/extra/build/build_script/kirin_kernel_release/kernel/include/linux/mod_devicetable.h"
	.file 99 "/mnt/disk/jenkins/ci/workspace/chipset_EMUI8.2.0_docker/opensource/component_code/vendor/huawei/extra/build/build_script/kirin_kernel_release/kernel/include/linux/vmstat.h"
	.file 100 "/mnt/disk/jenkins/ci/workspace/chipset_EMUI8.2.0_docker/opensource/component_code/vendor/huawei/extra/build/build_script/kirin_kernel_release/kernel/include/linux/flex_proportions.h"
	.file 101 "/mnt/disk/jenkins/ci/workspace/chipset_EMUI8.2.0_docker/opensource/component_code/vendor/huawei/extra/build/build_script/kirin_kernel_release/kernel/include/linux/mempool.h"
	.file 102 "/mnt/disk/jenkins/ci/workspace/chipset_EMUI8.2.0_docker/opensource/component_code/vendor/huawei/extra/build/build_script/kirin_kernel_release/kernel/include/linux/bsg.h"
	.file 103 "/mnt/disk/jenkins/ci/workspace/chipset_EMUI8.2.0_docker/opensource/component_code/vendor/huawei/extra/build/build_script/kirin_kernel_release/kernel/include/linux/wbt.h"
	.file 104 "/mnt/disk/jenkins/ci/workspace/chipset_EMUI8.2.0_docker/opensource/component_code/vendor/huawei/extra/build/build_script/kirin_kernel_release/kernel/include/linux/scatterlist.h"
	.file 105 "/mnt/disk/jenkins/ci/workspace/chipset_EMUI8.2.0_docker/opensource/component_code/vendor/huawei/extra/build/build_script/kirin_kernel_release/kernel/include/linux/elevator.h"
	.file 106 "/mnt/disk/jenkins/ci/workspace/chipset_EMUI8.2.0_docker/opensource/component_code/vendor/huawei/extra/build/build_script/kirin_kernel_release/kernel/include/linux/stddef.h"
	.file 107 "/mnt/disk/jenkins/ci/workspace/chipset_EMUI8.2.0_docker/opensource/component_code/vendor/huawei/extra/build/build_script/kirin_kernel_release/kernel/include/linux/interrupt.h"
	.file 108 "/mnt/disk/jenkins/ci/workspace/chipset_EMUI8.2.0_docker/opensource/component_code/vendor/huawei/extra/build/build_script/kirin_kernel_release/kernel/include/linux/mmc/core.h"
	.file 109 "/mnt/disk/jenkins/ci/workspace/chipset_EMUI8.2.0_docker/opensource/component_code/vendor/huawei/extra/build/build_script/kirin_kernel_release/kernel/include/linux/mmc/host.h"
	.file 110 "/mnt/disk/jenkins/ci/workspace/chipset_EMUI8.2.0_docker/opensource/component_code/vendor/huawei/extra/build/build_script/kirin_kernel_release/kernel/include/linux/hisi-bkops-core.h"
	.file 111 "/mnt/disk/jenkins/ci/workspace/chipset_EMUI8.2.0_docker/opensource/component_code/vendor/huawei/extra/build/build_script/kirin_kernel_release/kernel/include/linux/mmc/card.h"
	.file 112 "/mnt/disk/jenkins/ci/workspace/chipset_EMUI8.2.0_docker/opensource/component_code/vendor/huawei/extra/build/build_script/kirin_kernel_release/kernel/include/linux/leds.h"
	.file 113 "/mnt/disk/jenkins/ci/workspace/chipset_EMUI8.2.0_docker/opensource/component_code/vendor/huawei/extra/build/build_script/kirin_kernel_release/kernel/include/linux/wakelock.h"
	.file 114 "/mnt/disk/jenkins/ci/workspace/chipset_EMUI8.2.0_docker/opensource/component_code/vendor/huawei/extra/build/build_script/kirin_kernel_release/kernel/include/linux/mmc/pm.h"
	.file 115 "/mnt/disk/jenkins/ci/workspace/chipset_EMUI8.2.0_docker/opensource/component_code/vendor/huawei/extra/build/build_script/kirin_kernel_release/kernel/drivers/mmc/core/core.h"
	.file 116 "/mnt/disk/jenkins/ci/workspace/chipset_EMUI8.2.0_docker/opensource/component_code/vendor/huawei/extra/build/build_script/kirin_kernel_release/kernel/drivers/mmc/core/../card/queue.h"
	.file 117 "/mnt/disk/jenkins/ci/workspace/chipset_EMUI8.2.0_docker/opensource/component_code/vendor/huawei/extra/build/build_script/kirin_kernel_release/kernel/include/uapi/linux/swab.h"
	.file 118 "/mnt/disk/jenkins/ci/workspace/chipset_EMUI8.2.0_docker/opensource/component_code/vendor/huawei/extra/build/build_script/kirin_kernel_release/kernel/arch/arm64/include/asm/cachetype.h"
	.file 119 "/mnt/disk/jenkins/ci/workspace/chipset_EMUI8.2.0_docker/opensource/component_code/vendor/huawei/extra/build/build_script/kirin_kernel_release/kernel/include/linux/printk.h"
	.file 120 "/mnt/disk/jenkins/ci/workspace/chipset_EMUI8.2.0_docker/opensource/component_code/vendor/huawei/extra/build/build_script/kirin_kernel_release/kernel/include/linux/kernel.h"
	.file 121 "/mnt/disk/jenkins/ci/workspace/chipset_EMUI8.2.0_docker/opensource/component_code/vendor/huawei/extra/build/build_script/kirin_kernel_release/kernel/arch/arm64/include/asm/stack_pointer.h"
	.file 122 "/mnt/disk/jenkins/ci/workspace/chipset_EMUI8.2.0_docker/opensource/component_code/vendor/huawei/extra/build/build_script/kirin_kernel_release/kernel/include/chipset_common/kernel_harden/kaslr.h"
	.file 123 "/mnt/disk/jenkins/ci/workspace/chipset_EMUI8.2.0_docker/opensource/component_code/vendor/huawei/extra/build/build_script/kirin_kernel_release/kernel/arch/arm64/include/asm/hwcap.h"
	.file 124 "/mnt/disk/jenkins/ci/workspace/chipset_EMUI8.2.0_docker/opensource/component_code/vendor/huawei/extra/build/build_script/kirin_kernel_release/kernel/arch/arm64/include/asm/cpufeature.h"
	.file 125 "/mnt/disk/jenkins/ci/workspace/chipset_EMUI8.2.0_docker/opensource/component_code/vendor/huawei/extra/build/build_script/kirin_kernel_release/kernel/include/linux/jiffies.h"
	.file 126 "/mnt/disk/jenkins/ci/workspace/chipset_EMUI8.2.0_docker/opensource/component_code/vendor/huawei/extra/build/build_script/kirin_kernel_release/kernel/arch/arm64/include/asm/memory.h"
	.file 127 "/mnt/disk/jenkins/ci/workspace/chipset_EMUI8.2.0_docker/opensource/component_code/vendor/huawei/extra/build/build_script/kirin_kernel_release/kernel/include/asm-generic/percpu.h"
	.file 128 "/mnt/disk/jenkins/ci/workspace/chipset_EMUI8.2.0_docker/opensource/component_code/vendor/huawei/extra/build/build_script/kirin_kernel_release/kernel/include/linux/highuid.h"
	.file 129 "/mnt/disk/jenkins/ci/workspace/chipset_EMUI8.2.0_docker/opensource/component_code/vendor/huawei/extra/build/build_script/kirin_kernel_release/kernel/include/linux/slab.h"
	.file 130 "/mnt/disk/jenkins/ci/workspace/chipset_EMUI8.2.0_docker/opensource/component_code/vendor/huawei/extra/build/build_script/kirin_kernel_release/kernel/include/linux/debug_locks.h"
	.file 131 "/mnt/disk/jenkins/ci/workspace/chipset_EMUI8.2.0_docker/opensource/component_code/vendor/huawei/extra/build/build_script/kirin_kernel_release/kernel/include/asm-generic/pgtable.h"
	.file 132 "/mnt/disk/jenkins/ci/workspace/chipset_EMUI8.2.0_docker/opensource/component_code/vendor/huawei/extra/build/build_script/kirin_kernel_release/kernel/include/linux/jump_label.h"
	.file 133 "/mnt/disk/jenkins/ci/workspace/chipset_EMUI8.2.0_docker/opensource/component_code/vendor/huawei/extra/build/build_script/kirin_kernel_release/kernel/arch/arm64/include/asm/irq.h"
	.file 134 "/mnt/disk/jenkins/ci/workspace/chipset_EMUI8.2.0_docker/opensource/component_code/vendor/huawei/extra/build/build_script/kirin_kernel_release/kernel/arch/arm64/include/asm/hardirq.h"
	.file 135 "/mnt/disk/jenkins/ci/workspace/chipset_EMUI8.2.0_docker/opensource/component_code/vendor/huawei/extra/build/build_script/kirin_kernel_release/kernel/drivers/mmc/core/mmc_ops.h"
	.file 136 "/mnt/disk/jenkins/ci/workspace/chipset_EMUI8.2.0_docker/opensource/component_code/vendor/huawei/extra/build/build_script/kirin_kernel_release/kernel/arch/arm64/include/asm/string.h"
	.section	.note.GNU-stack,"",%progbits
