	.cpu generic+fp+simd
	.file	"ufs_vendor_mode.c"
	.text
.Ltext0:
	.cfi_sections	.debug_frame
	.align	2
	.global	ufs_ioctl_vendor_package
	.type	ufs_ioctl_vendor_package, %function
ufs_ioctl_vendor_package:
.LFB2972:
	.file 1 "/mnt/disk/jenkins/ci/workspace/chipset_9.1.0_sne_ine/opensource/component_code/vendor/huawei/extra/build/build_script/kirin_kernel_release/kernel/drivers/scsi/ufs/ufs_vendor_mode.c"
	.loc 1 29 0
	.cfi_startproc
.LVL0:
	stp	x29, x30, [sp, -96]!
	.cfi_def_cfa_offset 96
	.cfi_offset 29, -96
	.cfi_offset 30, -88
	add	x29, sp, 0
	.cfi_def_cfa_register 29
	stp	x21, x22, [sp,32]
	.cfi_offset 21, -64
	.cfi_offset 22, -56
	adrp	x21, __stack_chk_guard
	stp	x23, x24, [sp,48]
	.cfi_offset 23, -48
	.cfi_offset 24, -40
	mov	x23, x0
	ldr	x0, [x21,#:lo12:__stack_chk_guard]
.LVL1:
	stp	x19, x20, [sp,16]
	stp	x25, x26, [sp,64]
	.cfi_offset 19, -80
	.cfi_offset 20, -72
	.cfi_offset 25, -32
	.cfi_offset 26, -24
	.loc 1 29 0
	str	x0, [x29,88]
	mov	x20, x2
	mov	x25, x1
	.loc 1 33 0
	cbz	x2, .L30
	.loc 1 38 0
	adrp	x22, .LANCHOR1
	.loc 1 40 0
	adrp	x24, .LANCHOR0
	.loc 1 38 0
	add	x0, x22, :lo12:.LANCHOR1
	.loc 1 40 0
	add	x26, x24, :lo12:.LANCHOR0
	.loc 1 38 0
	bl	mutex_lock
.LVL2:
	.loc 1 40 0
	ldr	x0, [x23,72]
	adrp	x1, .LC1
	add	x1, x1, :lo12:.LC1
	mov	x2, x26
	bl	_dev_info
.LVL3:
	.loc 1 42 0
	ldr	w3, [x25,8]
	cmp	w3, 9
	bgt	.L31
	.loc 1 50 0
	ldr	x19, [x25]
	cbz	x19, .L6
	sbfiz	x3, x3, 5, 32
.L7:
.LBB131:
.LBB132:
.LBB133:
.LBB134:
.LBB135:
.LBB136:
	.file 2 "/mnt/disk/jenkins/ci/workspace/chipset_9.1.0_sne_ine/opensource/component_code/vendor/huawei/extra/build/build_script/kirin_kernel_release/kernel/arch/arm64/include/asm/current.h"
	.loc 2 20 0
#APP
// 20 "/mnt/disk/jenkins/ci/workspace/chipset_9.1.0_sne_ine/opensource/component_code/vendor/huawei/extra/build/build_script/kirin_kernel_release/kernel/arch/arm64/include/asm/current.h" 1
	mrs x0, sp_el0
// 0 "" 2
.LVL4:
#NO_APP
.LBE136:
.LBE135:
.LBE134:
.LBE133:
.LBE132:
.LBE131:
	.loc 1 66 0
	add	x19, x19, x3
.LBB143:
.LBB139:
.LBB138:
.LBB137:
	.file 3 "/mnt/disk/jenkins/ci/workspace/chipset_9.1.0_sne_ine/opensource/component_code/vendor/huawei/extra/build/build_script/kirin_kernel_release/kernel/arch/arm64/include/asm/uaccess.h"
	.loc 3 112 0
	ldr	x0, [x0,8]
.LVL5:
	.loc 3 115 0
	mov	x1, x20
.LVL6:
#APP
// 115 "/mnt/disk/jenkins/ci/workspace/chipset_9.1.0_sne_ine/opensource/component_code/vendor/huawei/extra/build/build_script/kirin_kernel_release/kernel/arch/arm64/include/asm/uaccess.h" 1
		adds	x1, x1, 16
	csel	x0, xzr, x0, hi
	csinv	x1, x1, xzr, cc
	sbcs	xzr, x1, x0
	cset	x1, ls

// 0 "" 2
#NO_APP
.LBE137:
.LBE138:
	.loc 3 445 0
	cbnz	x1, .L32
	.loc 3 450 0
	stp	xzr, xzr, [x19]
.LBE139:
.LBE143:
	.loc 1 64 0
	mov	w19, 16
.LVL7:
.L14:
	.loc 1 69 0
	adrp	x1, .LC4
.LVL8:
	ldr	x0, [x23,72]
.LVL9:
	add	x1, x1, :lo12:.LC4
	add	x2, x24, :lo12:.LANCHOR0
	bl	dev_err
.LVL10:
.L5:
	.loc 1 93 0
	add	x0, x22, :lo12:.LANCHOR1
	bl	mutex_unlock
.LVL11:
	.loc 1 94 0
	mov	w0, w19
.L3:
	.loc 1 95 0
	ldr	x20, [x29,88]
.LVL12:
	ldr	x1, [x21,#:lo12:__stack_chk_guard]
	cmp	x20, x1
	bne	.L33
	ldp	x19, x20, [sp,16]
	.cfi_remember_state
	.cfi_restore 20
	.cfi_restore 19
.LVL13:
	ldp	x21, x22, [sp,32]
	.cfi_restore 22
	.cfi_restore 21
	ldp	x23, x24, [sp,48]
	.cfi_restore 24
	.cfi_restore 23
.LVL14:
	ldp	x25, x26, [sp,64]
	.cfi_restore 26
	.cfi_restore 25
.LVL15:
	ldp	x29, x30, [sp], 96
	.cfi_restore 30
	.cfi_restore 29
	.cfi_def_cfa 31, 0
	ret
.LVL16:
.L32:
	.cfi_restore_state
.LBB144:
.LBB140:
	.loc 3 447 0
	mov	x0, x19
.LVL17:
	mov	x1, x20
.LVL18:
	mov	x2, 16
	bl	__arch_copy_from_user
.LVL19:
	mov	x26, x0
.LVL20:
	.loc 3 449 0
	cbnz	x0, .L34
.LVL21:
.L10:
.LBE140:
.LBE144:
	.loc 1 73 0
	add	x20, x20, 16
.LVL22:
.LBB145:
.LBB146:
.LBB147:
.LBB148:
.LBB149:
.LBB150:
	.loc 2 20 0
#APP
// 20 "/mnt/disk/jenkins/ci/workspace/chipset_9.1.0_sne_ine/opensource/component_code/vendor/huawei/extra/build/build_script/kirin_kernel_release/kernel/arch/arm64/include/asm/current.h" 1
	mrs x0, sp_el0
// 0 "" 2
.LVL23:
#NO_APP
.LBE150:
.LBE149:
	.loc 3 115 0
	mov	x1, x20
.LVL24:
	.loc 3 112 0
	ldr	x0, [x0,8]
.LVL25:
	.loc 3 115 0
#APP
// 115 "/mnt/disk/jenkins/ci/workspace/chipset_9.1.0_sne_ine/opensource/component_code/vendor/huawei/extra/build/build_script/kirin_kernel_release/kernel/arch/arm64/include/asm/uaccess.h" 1
		adds	x1, x1, 1
	csel	x0, xzr, x0, hi
	csinv	x1, x1, xzr, cc
	sbcs	xzr, x1, x0
	cset	x1, ls

// 0 "" 2
#NO_APP
.LBE148:
.LBE147:
	.loc 3 445 0
	cbnz	x1, .L35
	.loc 3 450 0
	strb	wzr, [x29,87]
.LVL26:
.LBE146:
.LBE145:
	.loc 1 73 0
	mov	w19, 1
.LVL27:
.L15:
	.loc 1 75 0
	ldr	x0, [x23,72]
.LVL28:
	adrp	x1, .LC5
.LVL29:
	add	x1, x1, :lo12:.LC5
	add	x2, x24, :lo12:.LANCHOR0
	bl	dev_err
.LVL30:
	.loc 1 76 0
	b	.L5
.LVL31:
.L31:
	.loc 1 44 0
	ldr	x0, [x23,72]
	adrp	x1, .LC2
	add	x1, x1, :lo12:.LC2
	mov	x2, x26
	.loc 1 46 0
	mov	w19, -22
.LVL32:
	.loc 1 44 0
	bl	dev_err
.LVL33:
	.loc 1 47 0
	b	.L5
.LVL34:
.L35:
.LBB154:
.LBB151:
	.loc 3 447 0
	add	x19, x29, 87
.LVL35:
	mov	x1, x20
.LVL36:
	mov	x0, x19
.LVL37:
	mov	x2, 1
	bl	__arch_copy_from_user
.LVL38:
	mov	x20, x0
.LVL39:
	.loc 3 449 0
	cbnz	x0, .L36
.LVL40:
.L12:
.LBE151:
.LBE154:
	.loc 1 78 0
	ldrb	w0, [x29,87]
.LVL41:
	cbnz	w0, .L37
.L13:
	.loc 1 90 0
	ldr	w0, [x25,8]
.LVL42:
	mov	w19, 0
	add	w0, w0, 1
	str	w0, [x25,8]
	b	.L5
.LVL43:
.L37:
	.loc 1 80 0
	ldrsw	x0, [x25,8]
.LVL44:
.LBB155:
.LBB156:
.LBB157:
	.file 4 "/mnt/disk/jenkins/ci/workspace/chipset_9.1.0_sne_ine/opensource/component_code/vendor/huawei/extra/build/build_script/kirin_kernel_release/kernel/include/linux/slab.h"
	.loc 4 499 0
	mov	w1, 32960
.LBE157:
.LBE156:
.LBE155:
	.loc 1 80 0
	ldr	x19, [x25]
.LVL45:
.LBB162:
.LBB160:
.LBB158:
	.loc 4 499 0
	movk	w1, 0x240, lsl 16
	mov	x2, 4096
.LBE158:
.LBE160:
.LBE162:
	.loc 1 80 0
	add	x19, x19, x0, lsl 5
.LBB163:
.LBB161:
.LBB159:
	.loc 4 499 0
	adrp	x0, kmalloc_caches+96
	ldr	x0, [x0,#:lo12:kmalloc_caches+96]
	bl	kmem_cache_alloc_trace
.LVL46:
.LBE159:
.LBE161:
.LBE163:
	.loc 1 80 0
	str	x0, [x19,24]
	.loc 1 83 0
	ldrsw	x0, [x25,8]
	ldr	x1, [x25]
	add	x0, x1, x0, lsl 5
	.loc 1 82 0
	ldr	x1, [x0,24]
	cbz	x1, .L17
	.loc 1 88 0
	mov	w1, 1
	str	w1, [x0,16]
	b	.L13
.LVL47:
.L6:
.LBB164:
.LBB165:
.LBB166:
	.loc 4 499 0
	adrp	x0, kmalloc_caches+72
	mov	w1, 32960
	movk	w1, 0x240, lsl 16
	mov	x2, 320
	ldr	x0, [x0,#:lo12:kmalloc_caches+72]
	bl	kmem_cache_alloc_trace
.LVL48:
.LBE166:
.LBE165:
.LBE164:
	.loc 1 51 0
	str	x0, [x25]
	.loc 1 55 0
	cbz	x0, .L38
	.loc 1 61 0
	str	wzr, [x25,8]
	mov	x19, x0
	mov	x3, 0
	b	.L7
.LVL49:
.L17:
	.loc 1 84 0
	mov	w19, -12
.LVL50:
	b	.L5
.LVL51:
.L30:
	.loc 1 34 0
	ldr	x0, [x23,72]
	adrp	x1, .LC0
	adrp	x2, .LANCHOR0
.LVL52:
	add	x1, x1, :lo12:.LC0
	add	x2, x2, :lo12:.LANCHOR0
	bl	dev_err
.LVL53:
	.loc 1 35 0
	mov	w0, -22
	b	.L3
.L38:
	.loc 1 56 0
	ldr	x0, [x23,72]
	adrp	x1, .LC3
	add	x1, x1, :lo12:.LC3
	mov	x2, x26
	.loc 1 58 0
	mov	w19, -12
.LVL54:
	.loc 1 56 0
	bl	dev_err
.LVL55:
	.loc 1 59 0
	b	.L5
.LVL56:
.L33:
	.loc 1 95 0
	bl	__stack_chk_fail
.LVL57:
.L36:
.LBB167:
.LBB152:
	.loc 3 450 0
	sub	x0, x19, x0
.LVL58:
	mov	w1, 0
	add	x0, x0, 1
	mov	x2, x20
.LBE152:
.LBE167:
	.loc 1 73 0
	mov	w19, w20
.LVL59:
.LBB168:
.LBB153:
	.loc 3 450 0
	bl	memset
.LVL60:
.LBE153:
.LBE168:
	.loc 1 74 0
	cbz	w20, .L12
	b	.L15
.LVL61:
.L34:
.LBB169:
.LBB141:
	.loc 3 450 0
	sub	x0, x19, x0
.LVL62:
	mov	w1, 0
	add	x0, x0, 16
	mov	x2, x26
.LBE141:
.LBE169:
	.loc 1 64 0
	mov	w19, w26
.LVL63:
.LBB170:
.LBB142:
	.loc 3 450 0
	bl	memset
.LVL64:
.LBE142:
.LBE170:
	.loc 1 68 0
	cbz	w26, .L10
	b	.L14
	.cfi_endproc
.LFE2972:
	.size	ufs_ioctl_vendor_package, .-ufs_ioctl_vendor_package
	.align	2
	.global	ufs_ioctl_vendor_package_tick
	.type	ufs_ioctl_vendor_package_tick, %function
ufs_ioctl_vendor_package_tick:
.LFB2973:
	.loc 1 101 0
	.cfi_startproc
.LVL65:
	stp	x29, x30, [sp, -112]!
	.cfi_def_cfa_offset 112
	.cfi_offset 29, -112
	.cfi_offset 30, -104
	add	x29, sp, 0
	.cfi_def_cfa_register 29
	stp	x25, x26, [sp,64]
	stp	x19, x20, [sp,16]
	stp	x21, x22, [sp,32]
	stp	x23, x24, [sp,48]
	stp	x27, x28, [sp,80]
	.cfi_offset 25, -48
	.cfi_offset 26, -40
	.cfi_offset 19, -96
	.cfi_offset 20, -88
	.cfi_offset 21, -80
	.cfi_offset 22, -72
	.cfi_offset 23, -64
	.cfi_offset 24, -56
	.cfi_offset 27, -32
	.cfi_offset 28, -24
	.loc 1 101 0
	mov	x25, x3
	mov	x20, x0
	mov	x26, x1
	mov	x21, x2
	.loc 1 110 0
	cbz	x3, .L109
	.loc 1 115 0
	adrp	x22, .LANCHOR1
	add	x0, x22, :lo12:.LANCHOR1
	bl	mutex_lock
.LVL66:
	.loc 1 117 0 discriminator 2
	adrp	x1, jiffies
	adrp	x4, .LANCHOR2
	ldr	x0, [x1,#:lo12:jiffies]
	ldr	x2, [x4,#:lo12:.LANCHOR2]
	sub	x0, x0, x2
	tbnz	x0, #63, .L110
	.loc 1 123 0
	ldr	x3, [x1,#:lo12:jiffies]
	.loc 1 127 0
	adrp	x24, .LANCHOR0
	add	x19, x24, :lo12:.LANCHOR0
	ldr	x0, [x20,72]
	add	x19, x19, 32
	adrp	x1, .LC7
	.loc 1 123 0
	add	x3, x3, 446464
	.loc 1 127 0
	add	x1, x1, :lo12:.LC7
	.loc 1 123 0
	add	x3, x3, 3536
	.loc 1 127 0
	mov	x2, x19
	.loc 1 123 0
	str	x3, [x4,#:lo12:.LANCHOR2]
	.loc 1 127 0
	bl	_dev_info
.LVL67:
	.loc 1 129 0
	ldr	x0, [x21]
	cbz	x0, .L111
	.loc 1 136 0
	ldr	x0, [x20,64]
	bl	scsi_block_requests
.LVL68:
	.loc 1 137 0
	ldr	x0, [x20,72]
	adrp	x1, .LC9
	add	x1, x1, :lo12:.LC9
	mov	x2, x19
	bl	_dev_info
.LVL69:
.LBB179:
.LBB180:
	.loc 1 13 0
	mov	w0, 1
	bl	msleep
.LVL70:
	.loc 1 15 0
	ldr	x0, [x20,136]
	cbz	x0, .L48
	.loc 1 18 0 discriminator 5
	mov	x0, 35160
	mov	w19, 4999
	movk	x0, 0x41, lsl 16
	bl	__const_udelay
.LVL71:
.L57:
	.loc 1 15 0
	ldr	x1, [x20,136]
	.loc 1 18 0 discriminator 5
	mov	x0, 35160
	movk	x0, 0x41, lsl 16
	.loc 1 15 0
	cbz	x1, .L48
	.loc 1 18 0 discriminator 5
	bl	__const_udelay
.LVL72:
	.loc 1 14 0
	subs	w19, w19, #1
	bne	.L57
	.loc 1 20 0
	add	x19, x24, :lo12:.LANCHOR0
	ldr	x0, [x20,72]
	ldr	x3, [x20,136]
	adrp	x1, .LC10
	add	x1, x1, :lo12:.LC10
	add	x2, x19, 64
	.loc 1 22 0
	mov	w23, -110
.LVL73:
	.loc 1 20 0
	bl	dev_err
.LVL74:
.LBE180:
.LBE179:
	.loc 1 140 0
	adrp	x1, .LC11
	ldr	x0, [x20,72]
	add	x1, x1, :lo12:.LC11
	add	x2, x19, 32
	mov	w3, w23
	bl	dev_err
.LVL75:
.L50:
	.loc 1 189 0
	ldr	x0, [x20,64]
	bl	scsi_unblock_requests
.LVL76:
	.loc 1 190 0
	add	x2, x24, :lo12:.LANCHOR0
	ldr	x0, [x20,72]
	adrp	x1, .LC16
	add	x2, x2, 32
	add	x1, x1, :lo12:.LC16
	bl	_dev_info
.LVL77:
	.loc 1 191 0
	ldr	x2, [x21]
	cbz	x2, .L70
	.loc 1 192 0 discriminator 1
	ldr	w0, [x21,8]
	cmp	w0, wzr
	ble	.L71
	mov	w20, 0
.LVL78:
.L74:
	.loc 1 194 0
	sbfiz	x19, x20, 5, 32
.LVL79:
	.loc 1 193 0
	add	w20, w20, 1
	.loc 1 194 0
	add	x1, x2, x19
	ldr	w0, [x1,16]
	cbz	w0, .L72
	.loc 1 197 0
	str	wzr, [x1,16]
	ldr	x2, [x21]
	add	x1, x2, x19
.L72:
	.loc 1 199 0
	ldr	x1, [x1,24]
	.loc 1 200 0
	mov	x0, x1
	.loc 1 199 0
	cbz	x1, .L73
	.loc 1 200 0
	bl	kfree
.LVL80:
	.loc 1 204 0
	ldr	x0, [x21]
	add	x19, x0, x19
	str	xzr, [x19,24]
	ldr	x2, [x21]
.L73:
	.loc 1 192 0 discriminator 1
	ldr	w0, [x21,8]
	cmp	w0, w20
	bgt	.L74
.LVL81:
.L71:
	.loc 1 207 0
	mov	x0, x2
	bl	kfree
.LVL82:
	.loc 1 208 0
	str	xzr, [x21]
.L70:
	.loc 1 210 0
	str	wzr, [x21,8]
.L43:
	.loc 1 213 0
	add	x0, x22, :lo12:.LANCHOR1
	bl	mutex_unlock
.LVL83:
	.loc 1 214 0
	mov	w0, w23
.L106:
	.loc 1 215 0
	ldp	x19, x20, [sp,16]
	.cfi_remember_state
	.cfi_restore 20
	.cfi_restore 19
.LVL84:
	ldp	x21, x22, [sp,32]
	.cfi_restore 22
	.cfi_restore 21
.LVL85:
	ldp	x23, x24, [sp,48]
	.cfi_restore 24
	.cfi_restore 23
.LVL86:
	ldp	x25, x26, [sp,64]
	.cfi_restore 26
	.cfi_restore 25
.LVL87:
	ldp	x27, x28, [sp,80]
	.cfi_restore 28
	.cfi_restore 27
.LVL88:
	ldp	x29, x30, [sp], 112
	.cfi_restore 30
	.cfi_restore 29
	.cfi_def_cfa 31, 0
	ret
.LVL89:
.L48:
	.cfi_restore_state
	.loc 1 144 0 discriminator 1
	ldr	w0, [x21,8]
	cmp	w0, wzr
	ble	.L47
	.loc 1 145 0
	ldr	x19, [x21]
.LVL90:
	.loc 1 146 0
	ldrb	w3, [x19]
	sub	w0, w3, #4
	and	w0, w0, -5
	uxtb	w0, w0
	cbz	w0, .L52
	.loc 1 147 0
	cmp	w3, 40
	beq	.L59
	.loc 1 148 0
	cmp	w3, 136
	beq	.L60
	.loc 1 149 0
	cmp	w3, 66
	beq	.L61
	.loc 1 150 0
	cmp	w3, 10
	mov	w28, 0
.LBB181:
.LBB182:
.LBB183:
.LBB184:
.LBB185:
.LBB186:
	.loc 2 20 0
#APP
// 20 "/mnt/disk/jenkins/ci/workspace/chipset_9.1.0_sne_ine/opensource/component_code/vendor/huawei/extra/build/build_script/kirin_kernel_release/kernel/arch/arm64/include/asm/current.h" 1
	mrs x27, sp_el0
// 0 "" 2
.LVL91:
#NO_APP
.LBE186:
.LBE185:
.LBE184:
.LBE183:
.LBE182:
.LBE181:
	.loc 1 150 0
	beq	.L62
.LVL92:
.L105:
	.loc 1 151 0
	cmp	w3, 42
	beq	.L52
	.loc 1 152 0
	cmp	w3, 138
	beq	.L52
	.loc 1 160 0
	ldr	w0, [x19,16]
	cbz	w0, .L65
	.loc 1 161 0
	ldr	x4, [x19,24]
.LVL93:
	cbz	x4, .L112
	.loc 1 168 0
	mov	x3, x4
	mov	x0, x20
	mov	x1, x26
	mov	x2, x19
	str	x4, [x29,104]
	bl	ufshcd_send_vendor_scsi_cmd
.LVL94:
	mov	w23, w0
	.loc 1 170 0
	ldr	x4, [x29,104]
.LVL95:
	cbnz	w0, .L75
	.loc 1 176 0
	ubfiz	x0, x28, 8, 24
.LBB194:
.LBB191:
.LBB189:
.LBB187:
	.loc 3 115 0
	ldr	x1, [x27,8]
.LVL96:
.LBE187:
.LBE189:
.LBE191:
.LBE194:
	.loc 1 176 0
	add	x0, x25, x0
.LBB195:
.LBB192:
.LBB190:
.LBB188:
	.loc 3 115 0
	mov	x2, x0
.LVL97:
#APP
// 115 "/mnt/disk/jenkins/ci/workspace/chipset_9.1.0_sne_ine/opensource/component_code/vendor/huawei/extra/build/build_script/kirin_kernel_release/kernel/arch/arm64/include/asm/uaccess.h" 1
		adds	x2, x2, 256
	csel	x1, xzr, x1, hi
	csinv	x2, x2, xzr, cc
	sbcs	xzr, x2, x1
	cset	x2, ls

// 0 "" 2
#NO_APP
.LBE188:
.LBE190:
	.loc 3 458 0
	cbnz	x2, .L113
.LBE192:
.LBE195:
	.loc 1 176 0
	mov	w23, 256
.LVL98:
.L67:
	.loc 1 181 0
	add	x2, x24, :lo12:.LANCHOR0
.LVL99:
	ldr	x0, [x20,72]
	adrp	x1, .LC15
.LVL100:
	add	x2, x2, 32
	add	x1, x1, :lo12:.LC15
	mov	w3, w23
	bl	dev_err
.LVL101:
	.loc 1 183 0
	b	.L50
.LVL102:
.L110:
	.loc 1 118 0
	adrp	x2, .LANCHOR0
	ldr	x0, [x20,72]
	adrp	x1, .LC6
	add	x2, x2, :lo12:.LANCHOR0
	add	x1, x1, :lo12:.LC6
	add	x2, x2, 32
	.loc 1 120 0
	mov	w23, -16
.LVL103:
	.loc 1 118 0
	bl	dev_err
.LVL104:
	.loc 1 121 0
	b	.L43
.LVL105:
.L65:
	.loc 1 168 0
	mov	x0, x20
	mov	x1, x26
	mov	x2, x19
	mov	x3, 0
	bl	ufshcd_send_vendor_scsi_cmd
.LVL106:
	mov	w23, w0
	.loc 1 170 0
	cbnz	w0, .L75
.L68:
	.loc 1 144 0 discriminator 1
	ldr	w0, [x21,8]
	.loc 1 144 0 is_stmt 0 discriminator 2
	add	w28, w28, 1
	.loc 1 144 0 discriminator 1
	cmp	w0, w28
	ble	.L47
	.loc 1 145 0 is_stmt 1
	sbfiz	x0, x28, 5, 32
	ldr	x1, [x21]
	add	x19, x1, x0
	.loc 1 146 0
	ldrb	w3, [x1,x0]
	sub	w0, w3, #4
	and	w0, w0, -5
	uxtb	w0, w0
	cbz	w0, .L52
	.loc 1 147 0
	cmp	w3, 40
	beq	.L59
	.loc 1 148 0
	cmp	w3, 136
	beq	.L60
	.loc 1 149 0
	cmp	w3, 66
	beq	.L61
	.loc 1 150 0
	cmp	w3, 10
	bne	.L105
.L62:
	mov	w3, 10
.L52:
	.loc 1 154 0
	add	x2, x24, :lo12:.LANCHOR0
	ldr	x0, [x20,72]
	adrp	x1, .LC12
	add	x2, x2, 32
	add	x1, x1, :lo12:.LC12
	.loc 1 156 0
	mov	w23, 0
	.loc 1 154 0
	bl	dev_err
.LVL107:
	.loc 1 156 0
	b	.L50
.LVL108:
.L113:
.LBB196:
.LBB193:
	.loc 3 460 0
	mov	x1, x4
.LVL109:
	mov	x2, 256
.LVL110:
	bl	__arch_copy_to_user
.LVL111:
.LBE193:
.LBE196:
	.loc 1 176 0
	mov	w23, w0
	.loc 1 180 0
	cbz	w0, .L68
	b	.L67
.LVL112:
.L111:
	.loc 1 130 0
	ldr	x0, [x20,72]
	adrp	x1, .LC8
	add	x1, x1, :lo12:.LC8
	mov	x2, x19
	.loc 1 132 0
	mov	w23, -22
.LVL113:
	.loc 1 130 0
	bl	dev_err
.LVL114:
	.loc 1 133 0
	b	.L43
.LVL115:
.L47:
	.loc 1 163 0
	mov	w23, 0
	b	.L50
.L59:
	.loc 1 150 0
	mov	w3, 40
	b	.L52
.L60:
	mov	w3, 136
	b	.L52
.L61:
	mov	w3, 66
	b	.L52
.LVL116:
.L75:
	.loc 1 171 0
	add	x2, x24, :lo12:.LANCHOR0
	ldr	x0, [x20,72]
.LVL117:
	adrp	x1, .LC14
	ldrb	w3, [x19]
	add	x1, x1, :lo12:.LC14
	add	x2, x2, 32
	mov	w4, w23
.LVL118:
	bl	dev_err
.LVL119:
	.loc 1 173 0
	b	.L50
.LVL120:
.L112:
	.loc 1 162 0
	ldr	x0, [x20,72]
	adrp	x1, .LC13
	add	x1, x1, :lo12:.LC13
	.loc 1 163 0
	mov	w23, -22
	.loc 1 162 0
	bl	dev_err
.LVL121:
	.loc 1 164 0
	b	.L50
.LVL122:
.L109:
	.loc 1 111 0
	adrp	x2, .LANCHOR0
	ldr	x0, [x0,72]
	adrp	x1, .LC0
	add	x2, x2, :lo12:.LANCHOR0
	add	x1, x1, :lo12:.LC0
	add	x2, x2, 32
	bl	dev_err
.LVL123:
	.loc 1 112 0
	mov	w0, -22
	b	.L106
	.cfi_endproc
.LFE2973:
	.size	ufs_ioctl_vendor_package_tick, .-ufs_ioctl_vendor_package_tick
	.global	s_health_info_lock
	.section	.rodata
	.align	3
.LANCHOR0 = . + 0
	.type	__func__.36909, %object
	.size	__func__.36909, 25
__func__.36909:
	.string	"ufs_ioctl_vendor_package"
	.zero	7
	.type	__func__.36922, %object
	.size	__func__.36922, 30
__func__.36922:
	.string	"ufs_ioctl_vendor_package_tick"
	.zero	2
	.type	__func__.36901, %object
	.size	__func__.36901, 26
__func__.36901:
	.string	"wait_for_ufs_all_complete"
	.data
	.align	3
.LANCHOR1 = . + 0
	.type	s_health_info_lock, %object
	.size	s_health_info_lock, 72
s_health_info_lock:
	.word	1
	.zero	4
	.hword	0
	.hword	0
	.word	-559067475
	.word	-1
	.zero	4
	.xword	-1
	.xword	s_health_info_lock+32
	.xword	s_health_info_lock+32
	.zero	16
	.xword	0
	.section	.rodata.str1.8,"aMS",%progbits,1
	.align	3
.LC0:
	.string	"%s: User buffer is NULL!\n"
	.zero	6
.LC1:
	.string	"%s: ioctl vendor cmd buffering\n"
.LC2:
	.string	"%s: ioctl vendor cmd over count, %d\n"
	.zero	3
.LC3:
	.string	"%s: vendor cmd mem alloc error\n"
.LC4:
	.string	"%s: copy cdb error\n"
	.zero	4
.LC5:
	.string	"%s: copy data flag\n"
	.zero	4
.LC6:
	.string	"%s: wait for half an hour and try again\n"
	.zero	7
.LC7:
	.string	"%s: send all vendor cmd\n"
	.zero	7
.LC8:
	.string	"%s: vendor package cmd not init\n"
	.zero	7
.LC9:
	.string	"%s: block the queue"
	.zero	4
.LC10:
	.string	"%s: outstanding req : 0x%lx\n"
	.zero	3
.LC11:
	.string	"%s: wait for outstanding req cleard time out, ret == %d\n"
	.zero	7
.LC12:
	.string	"%s: not allow ioctl this cmd:0x%x\n"
	.zero	5
.LC13:
	.string	"data bufffer is null\n"
	.zero	2
.LC14:
	.string	"%s: send cmd[0x%x] error %d\n"
	.zero	3
.LC15:
	.string	"%s: copy to user error %d\n"
	.zero	5
.LC16:
	.string	"%s: unblock the queue"
	.bss
	.align	3
.LANCHOR2 = . + 0
	.type	s_timeout.36921, %object
	.size	s_timeout.36921, 8
s_timeout.36921:
	.zero	8
	.text
.Letext0:
	.file 5 "/mnt/disk/jenkins/ci/workspace/chipset_9.1.0_sne_ine/opensource/component_code/vendor/huawei/extra/build/build_script/kirin_kernel_release/kernel/include/uapi/asm-generic/int-ll64.h"
	.file 6 "/mnt/disk/jenkins/ci/workspace/chipset_9.1.0_sne_ine/opensource/component_code/vendor/huawei/extra/build/build_script/kirin_kernel_release/kernel/include/asm-generic/int-ll64.h"
	.file 7 "/mnt/disk/jenkins/ci/workspace/chipset_9.1.0_sne_ine/opensource/component_code/vendor/huawei/extra/build/build_script/kirin_kernel_release/kernel/include/uapi/asm-generic/posix_types.h"
	.file 8 "/mnt/disk/jenkins/ci/workspace/chipset_9.1.0_sne_ine/opensource/component_code/vendor/huawei/extra/build/build_script/kirin_kernel_release/kernel/include/uapi/linux/types.h"
	.file 9 "/mnt/disk/jenkins/ci/workspace/chipset_9.1.0_sne_ine/opensource/component_code/vendor/huawei/extra/build/build_script/kirin_kernel_release/kernel/include/linux/types.h"
	.file 10 "/mnt/disk/jenkins/ci/workspace/chipset_9.1.0_sne_ine/opensource/component_code/vendor/huawei/extra/build/build_script/kirin_kernel_release/kernel/include/linux/export.h"
	.file 11 "/mnt/disk/jenkins/ci/workspace/chipset_9.1.0_sne_ine/opensource/component_code/vendor/huawei/extra/build/build_script/kirin_kernel_release/kernel/include/linux/capability.h"
	.file 12 "/mnt/disk/jenkins/ci/workspace/chipset_9.1.0_sne_ine/opensource/component_code/vendor/huawei/extra/build/build_script/kirin_kernel_release/kernel/include/asm-generic/bug.h"
	.file 13 "/mnt/disk/jenkins/ci/workspace/chipset_9.1.0_sne_ine/opensource/component_code/vendor/huawei/extra/build/build_script/kirin_kernel_release/kernel/include/linux/restart_block.h"
	.file 14 "/mnt/disk/jenkins/ci/workspace/chipset_9.1.0_sne_ine/opensource/component_code/vendor/huawei/extra/build/build_script/kirin_kernel_release/kernel/include/uapi/linux/time.h"
	.file 15 "/mnt/disk/jenkins/ci/workspace/chipset_9.1.0_sne_ine/opensource/component_code/vendor/huawei/extra/build/build_script/kirin_kernel_release/kernel/arch/arm64/include/asm/compat.h"
	.file 16 "/mnt/disk/jenkins/ci/workspace/chipset_9.1.0_sne_ine/opensource/component_code/vendor/huawei/extra/build/build_script/kirin_kernel_release/kernel/arch/arm64/include/asm/thread_info.h"
	.file 17 "/mnt/disk/jenkins/ci/workspace/chipset_9.1.0_sne_ine/opensource/component_code/vendor/huawei/extra/build/build_script/kirin_kernel_release/kernel/arch/arm64/include/uapi/asm/ptrace.h"
	.file 18 "/mnt/disk/jenkins/ci/workspace/chipset_9.1.0_sne_ine/opensource/component_code/vendor/huawei/extra/build/build_script/kirin_kernel_release/kernel/arch/arm64/include/asm/spinlock_types.h"
	.file 19 "/mnt/disk/jenkins/ci/workspace/chipset_9.1.0_sne_ine/opensource/component_code/vendor/huawei/extra/build/build_script/kirin_kernel_release/kernel/include/linux/spinlock_types.h"
	.file 20 "/mnt/disk/jenkins/ci/workspace/chipset_9.1.0_sne_ine/opensource/component_code/vendor/huawei/extra/build/build_script/kirin_kernel_release/kernel/include/linux/rwlock_types.h"
	.file 21 "/mnt/disk/jenkins/ci/workspace/chipset_9.1.0_sne_ine/opensource/component_code/vendor/huawei/extra/build/build_script/kirin_kernel_release/kernel/arch/arm64/include/asm/fpsimd.h"
	.file 22 "/mnt/disk/jenkins/ci/workspace/chipset_9.1.0_sne_ine/opensource/component_code/vendor/huawei/extra/build/build_script/kirin_kernel_release/kernel/include/linux/jump_label.h"
	.file 23 "/mnt/disk/jenkins/ci/workspace/chipset_9.1.0_sne_ine/opensource/component_code/vendor/huawei/extra/build/build_script/kirin_kernel_release/kernel/include/asm-generic/atomic-long.h"
	.file 24 "/mnt/disk/jenkins/ci/workspace/chipset_9.1.0_sne_ine/opensource/component_code/vendor/huawei/extra/build/build_script/kirin_kernel_release/kernel/arch/arm64/include/asm/processor.h"
	.file 25 "/mnt/disk/jenkins/ci/workspace/chipset_9.1.0_sne_ine/opensource/component_code/vendor/huawei/extra/build/build_script/kirin_kernel_release/kernel/include/linux/seqlock.h"
	.file 26 "/mnt/disk/jenkins/ci/workspace/chipset_9.1.0_sne_ine/opensource/component_code/vendor/huawei/extra/build/build_script/kirin_kernel_release/kernel/include/linux/time64.h"
	.file 27 "/mnt/disk/jenkins/ci/workspace/chipset_9.1.0_sne_ine/opensource/component_code/vendor/huawei/extra/build/build_script/kirin_kernel_release/kernel/include/linux/plist.h"
	.file 28 "/mnt/disk/jenkins/ci/workspace/chipset_9.1.0_sne_ine/opensource/component_code/vendor/huawei/extra/build/build_script/kirin_kernel_release/kernel/include/linux/cpumask.h"
	.file 29 "/mnt/disk/jenkins/ci/workspace/chipset_9.1.0_sne_ine/opensource/component_code/vendor/huawei/extra/build/build_script/kirin_kernel_release/kernel/include/linux/wait.h"
	.file 30 "/mnt/disk/jenkins/ci/workspace/chipset_9.1.0_sne_ine/opensource/component_code/vendor/huawei/extra/build/build_script/kirin_kernel_release/kernel/include/linux/completion.h"
	.file 31 "/mnt/disk/jenkins/ci/workspace/chipset_9.1.0_sne_ine/opensource/component_code/vendor/huawei/extra/build/build_script/kirin_kernel_release/kernel/include/linux/ktime.h"
	.file 32 "/mnt/disk/jenkins/ci/workspace/chipset_9.1.0_sne_ine/opensource/component_code/vendor/huawei/extra/build/build_script/kirin_kernel_release/kernel/include/linux/rbtree.h"
	.file 33 "/mnt/disk/jenkins/ci/workspace/chipset_9.1.0_sne_ine/opensource/component_code/vendor/huawei/extra/build/build_script/kirin_kernel_release/kernel/include/linux/nodemask.h"
	.file 34 "/mnt/disk/jenkins/ci/workspace/chipset_9.1.0_sne_ine/opensource/component_code/vendor/huawei/extra/build/build_script/kirin_kernel_release/kernel/include/linux/osq_lock.h"
	.file 35 "/mnt/disk/jenkins/ci/workspace/chipset_9.1.0_sne_ine/opensource/component_code/vendor/huawei/extra/build/build_script/kirin_kernel_release/kernel/include/linux/rwsem.h"
	.file 36 "/mnt/disk/jenkins/ci/workspace/chipset_9.1.0_sne_ine/opensource/component_code/vendor/huawei/extra/build/build_script/kirin_kernel_release/kernel/include/linux/sched.h"
	.file 37 "/mnt/disk/jenkins/ci/workspace/chipset_9.1.0_sne_ine/opensource/component_code/vendor/huawei/extra/build/build_script/kirin_kernel_release/kernel/include/linux/mm_types.h"
	.file 38 "/mnt/disk/jenkins/ci/workspace/chipset_9.1.0_sne_ine/opensource/component_code/vendor/huawei/extra/build/build_script/kirin_kernel_release/kernel/include/linux/lockdep.h"
	.file 39 "/mnt/disk/jenkins/ci/workspace/chipset_9.1.0_sne_ine/opensource/component_code/vendor/huawei/extra/build/build_script/kirin_kernel_release/kernel/include/linux/uprobes.h"
	.file 40 "/mnt/disk/jenkins/ci/workspace/chipset_9.1.0_sne_ine/opensource/component_code/vendor/huawei/extra/build/build_script/kirin_kernel_release/kernel/include/linux/timer.h"
	.file 41 "/mnt/disk/jenkins/ci/workspace/chipset_9.1.0_sne_ine/opensource/component_code/vendor/huawei/extra/build/build_script/kirin_kernel_release/kernel/include/linux/uidgid.h"
	.file 42 "/mnt/disk/jenkins/ci/workspace/chipset_9.1.0_sne_ine/opensource/component_code/vendor/huawei/extra/build/build_script/kirin_kernel_release/kernel/include/linux/workqueue.h"
	.file 43 "/mnt/disk/jenkins/ci/workspace/chipset_9.1.0_sne_ine/opensource/component_code/vendor/huawei/extra/build/build_script/kirin_kernel_release/kernel/arch/arm64/include/asm/pgtable-types.h"
	.file 44 "/mnt/disk/jenkins/ci/workspace/chipset_9.1.0_sne_ine/opensource/component_code/vendor/huawei/extra/build/build_script/kirin_kernel_release/kernel/arch/arm64/include/asm/page.h"
	.file 45 "/mnt/disk/jenkins/ci/workspace/chipset_9.1.0_sne_ine/opensource/component_code/vendor/huawei/extra/build/build_script/kirin_kernel_release/kernel/include/linux/pfn.h"
	.file 46 "/mnt/disk/jenkins/ci/workspace/chipset_9.1.0_sne_ine/opensource/component_code/vendor/huawei/extra/build/build_script/kirin_kernel_release/kernel/include/linux/llist.h"
	.file 47 "/mnt/disk/jenkins/ci/workspace/chipset_9.1.0_sne_ine/opensource/component_code/vendor/huawei/extra/build/build_script/kirin_kernel_release/kernel/include/linux/smp.h"
	.file 48 "/mnt/disk/jenkins/ci/workspace/chipset_9.1.0_sne_ine/opensource/component_code/vendor/huawei/extra/build/build_script/kirin_kernel_release/kernel/arch/arm64/include/asm/smp.h"
	.file 49 "/mnt/disk/jenkins/ci/workspace/chipset_9.1.0_sne_ine/opensource/component_code/vendor/huawei/extra/build/build_script/kirin_kernel_release/kernel/arch/arm64/include/asm/mmu.h"
	.file 50 "/mnt/disk/jenkins/ci/workspace/chipset_9.1.0_sne_ine/opensource/component_code/vendor/huawei/extra/build/build_script/kirin_kernel_release/kernel/include/linux/fs.h"
	.file 51 "/mnt/disk/jenkins/ci/workspace/chipset_9.1.0_sne_ine/opensource/component_code/vendor/huawei/extra/build/build_script/kirin_kernel_release/kernel/include/linux/mm.h"
	.file 52 "/mnt/disk/jenkins/ci/workspace/chipset_9.1.0_sne_ine/opensource/component_code/vendor/huawei/extra/build/build_script/kirin_kernel_release/kernel/include/asm-generic/cputime_jiffies.h"
	.file 53 "/mnt/disk/jenkins/ci/workspace/chipset_9.1.0_sne_ine/opensource/component_code/vendor/huawei/extra/build/build_script/kirin_kernel_release/kernel/include/uapi/asm-generic/signal.h"
	.file 54 "/mnt/disk/jenkins/ci/workspace/chipset_9.1.0_sne_ine/opensource/component_code/vendor/huawei/extra/build/build_script/kirin_kernel_release/kernel/include/uapi/asm-generic/signal-defs.h"
	.file 55 "/mnt/disk/jenkins/ci/workspace/chipset_9.1.0_sne_ine/opensource/component_code/vendor/huawei/extra/build/build_script/kirin_kernel_release/kernel/include/uapi/asm-generic/siginfo.h"
	.file 56 "/mnt/disk/jenkins/ci/workspace/chipset_9.1.0_sne_ine/opensource/component_code/vendor/huawei/extra/build/build_script/kirin_kernel_release/kernel/include/linux/signal.h"
	.file 57 "/mnt/disk/jenkins/ci/workspace/chipset_9.1.0_sne_ine/opensource/component_code/vendor/huawei/extra/build/build_script/kirin_kernel_release/kernel/include/linux/pid.h"
	.file 58 "/mnt/disk/jenkins/ci/workspace/chipset_9.1.0_sne_ine/opensource/component_code/vendor/huawei/extra/build/build_script/kirin_kernel_release/kernel/include/linux/mmzone.h"
	.file 59 "/mnt/disk/jenkins/ci/workspace/chipset_9.1.0_sne_ine/opensource/component_code/vendor/huawei/extra/build/build_script/kirin_kernel_release/kernel/include/linux/mutex.h"
	.file 60 "/mnt/disk/jenkins/ci/workspace/chipset_9.1.0_sne_ine/opensource/component_code/vendor/huawei/extra/build/build_script/kirin_kernel_release/kernel/include/linux/notifier.h"
	.file 61 "/mnt/disk/jenkins/ci/workspace/chipset_9.1.0_sne_ine/opensource/component_code/vendor/huawei/extra/build/build_script/kirin_kernel_release/kernel/include/linux/seccomp.h"
	.file 62 "/mnt/disk/jenkins/ci/workspace/chipset_9.1.0_sne_ine/opensource/component_code/vendor/huawei/extra/build/build_script/kirin_kernel_release/kernel/include/uapi/linux/resource.h"
	.file 63 "/mnt/disk/jenkins/ci/workspace/chipset_9.1.0_sne_ine/opensource/component_code/vendor/huawei/extra/build/build_script/kirin_kernel_release/kernel/include/linux/timerqueue.h"
	.file 64 "/mnt/disk/jenkins/ci/workspace/chipset_9.1.0_sne_ine/opensource/component_code/vendor/huawei/extra/build/build_script/kirin_kernel_release/kernel/include/linux/hrtimer.h"
	.file 65 "/mnt/disk/jenkins/ci/workspace/chipset_9.1.0_sne_ine/opensource/component_code/vendor/huawei/extra/build/build_script/kirin_kernel_release/kernel/include/linux/task_io_accounting.h"
	.file 66 "/mnt/disk/jenkins/ci/workspace/chipset_9.1.0_sne_ine/opensource/component_code/vendor/huawei/extra/build/build_script/kirin_kernel_release/kernel/include/linux/assoc_array.h"
	.file 67 "/mnt/disk/jenkins/ci/workspace/chipset_9.1.0_sne_ine/opensource/component_code/vendor/huawei/extra/build/build_script/kirin_kernel_release/kernel/include/linux/key.h"
	.file 68 "/mnt/disk/jenkins/ci/workspace/chipset_9.1.0_sne_ine/opensource/component_code/vendor/huawei/extra/build/build_script/kirin_kernel_release/kernel/include/linux/cred.h"
	.file 69 "/mnt/disk/jenkins/ci/workspace/chipset_9.1.0_sne_ine/opensource/component_code/vendor/huawei/extra/build/build_script/kirin_kernel_release/kernel/include/linux/idr.h"
	.file 70 "/mnt/disk/jenkins/ci/workspace/chipset_9.1.0_sne_ine/opensource/component_code/vendor/huawei/extra/build/build_script/kirin_kernel_release/kernel/include/linux/percpu-refcount.h"
	.file 71 "/mnt/disk/jenkins/ci/workspace/chipset_9.1.0_sne_ine/opensource/component_code/vendor/huawei/extra/build/build_script/kirin_kernel_release/kernel/include/linux/rcu_sync.h"
	.file 72 "/mnt/disk/jenkins/ci/workspace/chipset_9.1.0_sne_ine/opensource/component_code/vendor/huawei/extra/build/build_script/kirin_kernel_release/kernel/include/linux/percpu-rwsem.h"
	.file 73 "/mnt/disk/jenkins/ci/workspace/chipset_9.1.0_sne_ine/opensource/component_code/vendor/huawei/extra/build/build_script/kirin_kernel_release/kernel/include/linux/bpf-cgroup.h"
	.file 74 "/mnt/disk/jenkins/ci/workspace/chipset_9.1.0_sne_ine/opensource/component_code/vendor/huawei/extra/build/build_script/kirin_kernel_release/kernel/include/linux/cgroup-defs.h"
	.file 75 "/mnt/disk/jenkins/ci/workspace/chipset_9.1.0_sne_ine/opensource/component_code/vendor/huawei/extra/build/build_script/kirin_kernel_release/kernel/include/linux/kernfs.h"
	.file 76 "/mnt/disk/jenkins/ci/workspace/chipset_9.1.0_sne_ine/opensource/component_code/vendor/huawei/extra/build/build_script/kirin_kernel_release/kernel/include/linux/seq_file.h"
	.file 77 "/mnt/disk/jenkins/ci/workspace/chipset_9.1.0_sne_ine/opensource/component_code/vendor/huawei/extra/build/build_script/kirin_kernel_release/kernel/include/linux/bio.h"
	.file 78 "/mnt/disk/jenkins/ci/workspace/chipset_9.1.0_sne_ine/opensource/component_code/vendor/huawei/extra/build/build_script/kirin_kernel_release/kernel/include/linux/blkdev.h"
	.file 79 "/mnt/disk/jenkins/ci/workspace/chipset_9.1.0_sne_ine/opensource/component_code/vendor/huawei/extra/build/build_script/kirin_kernel_release/kernel/include/linux/backing-dev-defs.h"
	.file 80 "/mnt/disk/jenkins/ci/workspace/chipset_9.1.0_sne_ine/opensource/component_code/vendor/huawei/extra/build/build_script/kirin_kernel_release/kernel/include/linux/iocontext.h"
	.file 81 "/mnt/disk/jenkins/ci/workspace/chipset_9.1.0_sne_ine/opensource/component_code/vendor/huawei/extra/build/build_script/kirin_kernel_release/kernel/include/linux/stat.h"
	.file 82 "/mnt/disk/jenkins/ci/workspace/chipset_9.1.0_sne_ine/opensource/component_code/vendor/huawei/extra/build/build_script/kirin_kernel_release/kernel/include/uapi/linux/elf.h"
	.file 83 "/mnt/disk/jenkins/ci/workspace/chipset_9.1.0_sne_ine/opensource/component_code/vendor/huawei/extra/build/build_script/kirin_kernel_release/kernel/include/linux/kobject_ns.h"
	.file 84 "/mnt/disk/jenkins/ci/workspace/chipset_9.1.0_sne_ine/opensource/component_code/vendor/huawei/extra/build/build_script/kirin_kernel_release/kernel/include/linux/sysfs.h"
	.file 85 "/mnt/disk/jenkins/ci/workspace/chipset_9.1.0_sne_ine/opensource/component_code/vendor/huawei/extra/build/build_script/kirin_kernel_release/kernel/include/linux/kobject.h"
	.file 86 "/mnt/disk/jenkins/ci/workspace/chipset_9.1.0_sne_ine/opensource/component_code/vendor/huawei/extra/build/build_script/kirin_kernel_release/kernel/include/linux/kref.h"
	.file 87 "/mnt/disk/jenkins/ci/workspace/chipset_9.1.0_sne_ine/opensource/component_code/vendor/huawei/extra/build/build_script/kirin_kernel_release/kernel/include/linux/moduleparam.h"
	.file 88 "/mnt/disk/jenkins/ci/workspace/chipset_9.1.0_sne_ine/opensource/component_code/vendor/huawei/extra/build/build_script/kirin_kernel_release/kernel/include/linux/module.h"
	.file 89 "/mnt/disk/jenkins/ci/workspace/chipset_9.1.0_sne_ine/opensource/component_code/vendor/huawei/extra/build/build_script/kirin_kernel_release/kernel/include/linux/rbtree_latch.h"
	.file 90 "/mnt/disk/jenkins/ci/workspace/chipset_9.1.0_sne_ine/opensource/component_code/vendor/huawei/extra/build/build_script/kirin_kernel_release/kernel/arch/arm64/include/asm/module.h"
	.file 91 "/mnt/disk/jenkins/ci/workspace/chipset_9.1.0_sne_ine/opensource/component_code/vendor/huawei/extra/build/build_script/kirin_kernel_release/kernel/include/linux/tracepoint-defs.h"
	.file 92 "/mnt/disk/jenkins/ci/workspace/chipset_9.1.0_sne_ine/opensource/component_code/vendor/huawei/extra/build/build_script/kirin_kernel_release/kernel/include/linux/kthread.h"
	.file 93 "/mnt/disk/jenkins/ci/workspace/chipset_9.1.0_sne_ine/opensource/component_code/vendor/huawei/extra/build/build_script/kirin_kernel_release/kernel/include/linux/bvec.h"
	.file 94 "/mnt/disk/jenkins/ci/workspace/chipset_9.1.0_sne_ine/opensource/component_code/vendor/huawei/extra/build/build_script/kirin_kernel_release/kernel/include/linux/blk_types.h"
	.file 95 "/mnt/disk/jenkins/ci/workspace/chipset_9.1.0_sne_ine/opensource/component_code/vendor/huawei/extra/build/build_script/kirin_kernel_release/kernel/include/linux/klist.h"
	.file 96 "/mnt/disk/jenkins/ci/workspace/chipset_9.1.0_sne_ine/opensource/component_code/vendor/huawei/extra/build/build_script/kirin_kernel_release/kernel/include/linux/list_bl.h"
	.file 97 "/mnt/disk/jenkins/ci/workspace/chipset_9.1.0_sne_ine/opensource/component_code/vendor/huawei/extra/build/build_script/kirin_kernel_release/kernel/include/linux/lockref.h"
	.file 98 "/mnt/disk/jenkins/ci/workspace/chipset_9.1.0_sne_ine/opensource/component_code/vendor/huawei/extra/build/build_script/kirin_kernel_release/kernel/include/linux/dcache.h"
	.file 99 "/mnt/disk/jenkins/ci/workspace/chipset_9.1.0_sne_ine/opensource/component_code/vendor/huawei/extra/build/build_script/kirin_kernel_release/kernel/include/linux/path.h"
	.file 100 "/mnt/disk/jenkins/ci/workspace/chipset_9.1.0_sne_ine/opensource/component_code/vendor/huawei/extra/build/build_script/kirin_kernel_release/kernel/include/linux/shrinker.h"
	.file 101 "/mnt/disk/jenkins/ci/workspace/chipset_9.1.0_sne_ine/opensource/component_code/vendor/huawei/extra/build/build_script/kirin_kernel_release/kernel/include/linux/list_lru.h"
	.file 102 "/mnt/disk/jenkins/ci/workspace/chipset_9.1.0_sne_ine/opensource/component_code/vendor/huawei/extra/build/build_script/kirin_kernel_release/kernel/include/linux/radix-tree.h"
	.file 103 "/mnt/disk/jenkins/ci/workspace/chipset_9.1.0_sne_ine/opensource/component_code/vendor/huawei/extra/build/build_script/kirin_kernel_release/kernel/include/uapi/linux/fiemap.h"
	.file 104 "/mnt/disk/jenkins/ci/workspace/chipset_9.1.0_sne_ine/opensource/component_code/vendor/huawei/extra/build/build_script/kirin_kernel_release/kernel/include/linux/migrate_mode.h"
	.file 105 "/mnt/disk/jenkins/ci/workspace/chipset_9.1.0_sne_ine/opensource/component_code/vendor/huawei/extra/build/build_script/kirin_kernel_release/kernel/include/linux/delayed_call.h"
	.file 106 "/mnt/disk/jenkins/ci/workspace/chipset_9.1.0_sne_ine/opensource/component_code/vendor/huawei/extra/build/build_script/kirin_kernel_release/kernel/include/linux/percpu_counter.h"
	.file 107 "/mnt/disk/jenkins/ci/workspace/chipset_9.1.0_sne_ine/opensource/component_code/vendor/huawei/extra/build/build_script/kirin_kernel_release/kernel/include/linux/quota.h"
	.file 108 "/mnt/disk/jenkins/ci/workspace/chipset_9.1.0_sne_ine/opensource/component_code/vendor/huawei/extra/build/build_script/kirin_kernel_release/kernel/include/linux/projid.h"
	.file 109 "/mnt/disk/jenkins/ci/workspace/chipset_9.1.0_sne_ine/opensource/component_code/vendor/huawei/extra/build/build_script/kirin_kernel_release/kernel/include/linux/genhd.h"
	.file 110 "/mnt/disk/jenkins/ci/workspace/chipset_9.1.0_sne_ine/opensource/component_code/vendor/huawei/extra/build/build_script/kirin_kernel_release/kernel/include/linux/nfs_fs_i.h"
	.file 111 "/mnt/disk/jenkins/ci/workspace/chipset_9.1.0_sne_ine/opensource/component_code/vendor/huawei/extra/build/build_script/kirin_kernel_release/kernel/include/linux/pinctrl/devinfo.h"
	.file 112 "/mnt/disk/jenkins/ci/workspace/chipset_9.1.0_sne_ine/opensource/component_code/vendor/huawei/extra/build/build_script/kirin_kernel_release/kernel/include/linux/pm.h"
	.file 113 "/mnt/disk/jenkins/ci/workspace/chipset_9.1.0_sne_ine/opensource/component_code/vendor/huawei/extra/build/build_script/kirin_kernel_release/kernel/include/linux/device.h"
	.file 114 "/mnt/disk/jenkins/ci/workspace/chipset_9.1.0_sne_ine/opensource/component_code/vendor/huawei/extra/build/build_script/kirin_kernel_release/kernel/include/linux/pm_wakeup.h"
	.file 115 "/mnt/disk/jenkins/ci/workspace/chipset_9.1.0_sne_ine/opensource/component_code/vendor/huawei/extra/build/build_script/kirin_kernel_release/kernel/arch/arm64/include/asm/device.h"
	.file 116 "/mnt/disk/jenkins/ci/workspace/chipset_9.1.0_sne_ine/opensource/component_code/vendor/huawei/extra/build/build_script/kirin_kernel_release/kernel/include/linux/dma-mapping.h"
	.file 117 "/mnt/disk/jenkins/ci/workspace/chipset_9.1.0_sne_ine/opensource/component_code/vendor/huawei/extra/build/build_script/kirin_kernel_release/kernel/include/linux/wakelock.h"
	.file 118 "/mnt/disk/jenkins/ci/workspace/chipset_9.1.0_sne_ine/opensource/component_code/vendor/huawei/extra/build/build_script/kirin_kernel_release/kernel/include/linux/vmstat.h"
	.file 119 "/mnt/disk/jenkins/ci/workspace/chipset_9.1.0_sne_ine/opensource/component_code/vendor/huawei/extra/build/build_script/kirin_kernel_release/kernel/include/linux/flex_proportions.h"
	.file 120 "/mnt/disk/jenkins/ci/workspace/chipset_9.1.0_sne_ine/opensource/component_code/vendor/huawei/extra/build/build_script/kirin_kernel_release/kernel/include/linux/mempool.h"
	.file 121 "/mnt/disk/jenkins/ci/workspace/chipset_9.1.0_sne_ine/opensource/component_code/vendor/huawei/extra/build/build_script/kirin_kernel_release/kernel/include/linux/bsg.h"
	.file 122 "/mnt/disk/jenkins/ci/workspace/chipset_9.1.0_sne_ine/opensource/component_code/vendor/huawei/extra/build/build_script/kirin_kernel_release/kernel/include/linux/wbt.h"
	.file 123 "/mnt/disk/jenkins/ci/workspace/chipset_9.1.0_sne_ine/opensource/component_code/vendor/huawei/extra/build/build_script/kirin_kernel_release/kernel/include/linux/scatterlist.h"
	.file 124 "/mnt/disk/jenkins/ci/workspace/chipset_9.1.0_sne_ine/opensource/component_code/vendor/huawei/extra/build/build_script/kirin_kernel_release/kernel/include/linux/elevator.h"
	.file 125 "/mnt/disk/jenkins/ci/workspace/chipset_9.1.0_sne_ine/opensource/component_code/vendor/huawei/extra/build/build_script/kirin_kernel_release/kernel/include/linux/blk-mq.h"
	.file 126 "/mnt/disk/jenkins/ci/workspace/chipset_9.1.0_sne_ine/opensource/component_code/vendor/huawei/extra/build/build_script/kirin_kernel_release/kernel/include/linux/stddef.h"
	.file 127 "/mnt/disk/jenkins/ci/workspace/chipset_9.1.0_sne_ine/opensource/component_code/vendor/huawei/extra/build/build_script/kirin_kernel_release/kernel/include/linux/hisi-bkops-core.h"
	.file 128 "/mnt/disk/jenkins/ci/workspace/chipset_9.1.0_sne_ine/opensource/component_code/vendor/huawei/extra/build/build_script/kirin_kernel_release/kernel/include/linux/dma-direction.h"
	.file 129 "/mnt/disk/jenkins/ci/workspace/chipset_9.1.0_sne_ine/opensource/component_code/vendor/huawei/extra/build/build_script/kirin_kernel_release/kernel/include/scsi/scsi_device.h"
	.file 130 "/mnt/disk/jenkins/ci/workspace/chipset_9.1.0_sne_ine/opensource/component_code/vendor/huawei/extra/build/build_script/kirin_kernel_release/kernel/include/scsi/scsi_host.h"
	.file 131 "/mnt/disk/jenkins/ci/workspace/chipset_9.1.0_sne_ine/opensource/component_code/vendor/huawei/extra/build/build_script/kirin_kernel_release/kernel/include/scsi/scsi_cmnd.h"
	.file 132 "/mnt/disk/jenkins/ci/workspace/chipset_9.1.0_sne_ine/opensource/component_code/vendor/huawei/extra/build/build_script/kirin_kernel_release/kernel/include/linux/sbitmap.h"
	.file 133 "/mnt/disk/jenkins/ci/workspace/chipset_9.1.0_sne_ine/opensource/component_code/vendor/huawei/extra/build/build_script/kirin_kernel_release/kernel/drivers/scsi/ufs/ufs.h"
	.file 134 "/mnt/disk/jenkins/ci/workspace/chipset_9.1.0_sne_ine/opensource/component_code/vendor/huawei/extra/build/build_script/kirin_kernel_release/kernel/drivers/scsi/ufs/ufshci.h"
	.file 135 "/mnt/disk/jenkins/ci/workspace/chipset_9.1.0_sne_ine/opensource/component_code/vendor/huawei/extra/build/build_script/kirin_kernel_release/kernel/drivers/scsi/ufs/ufshcd.h"
	.file 136 "/mnt/disk/jenkins/ci/workspace/chipset_9.1.0_sne_ine/opensource/component_code/vendor/huawei/extra/build/build_script/kirin_kernel_release/kernel/drivers/scsi/ufs/ufs_vendor_mode.h"
	.file 137 "/mnt/disk/jenkins/ci/workspace/chipset_9.1.0_sne_ine/opensource/component_code/vendor/huawei/extra/build/build_script/kirin_kernel_release/kernel/include/asm-generic/bitops/builtin-__fls.h"
	.file 138 "/mnt/disk/jenkins/ci/workspace/chipset_9.1.0_sne_ine/opensource/component_code/vendor/huawei/extra/build/build_script/kirin_kernel_release/kernel/include/asm-generic/bitops/fls64.h"
	.file 139 "/mnt/disk/jenkins/ci/workspace/chipset_9.1.0_sne_ine/opensource/component_code/vendor/huawei/extra/build/build_script/kirin_kernel_release/kernel/include/linux/jiffies.h"
	.file 140 "/mnt/disk/jenkins/ci/workspace/chipset_9.1.0_sne_ine/opensource/component_code/vendor/huawei/extra/build/build_script/kirin_kernel_release/kernel/include/linux/log2.h"
	.file 141 "/mnt/disk/jenkins/ci/workspace/chipset_9.1.0_sne_ine/opensource/component_code/vendor/huawei/extra/build/build_script/kirin_kernel_release/kernel/include/asm-generic/getorder.h"
	.file 142 "/mnt/disk/jenkins/ci/workspace/chipset_9.1.0_sne_ine/opensource/component_code/vendor/huawei/extra/build/build_script/kirin_kernel_release/kernel/include/linux/kasan-checks.h"
	.file 143 "/mnt/disk/jenkins/ci/workspace/chipset_9.1.0_sne_ine/opensource/component_code/vendor/huawei/extra/build/build_script/kirin_kernel_release/kernel/include/linux/thread_info.h"
	.file 144 "/mnt/disk/jenkins/ci/workspace/chipset_9.1.0_sne_ine/opensource/component_code/vendor/huawei/extra/build/build_script/kirin_kernel_release/kernel/arch/arm64/include/asm/cachetype.h"
	.file 145 "/mnt/disk/jenkins/ci/workspace/chipset_9.1.0_sne_ine/opensource/component_code/vendor/huawei/extra/build/build_script/kirin_kernel_release/kernel/include/linux/printk.h"
	.file 146 "/mnt/disk/jenkins/ci/workspace/chipset_9.1.0_sne_ine/opensource/component_code/vendor/huawei/extra/build/build_script/kirin_kernel_release/kernel/include/linux/kernel.h"
	.file 147 "/mnt/disk/jenkins/ci/workspace/chipset_9.1.0_sne_ine/opensource/component_code/vendor/huawei/extra/build/build_script/kirin_kernel_release/kernel/arch/arm64/include/asm/stack_pointer.h"
	.file 148 "/mnt/disk/jenkins/ci/workspace/chipset_9.1.0_sne_ine/opensource/component_code/vendor/huawei/extra/build/build_script/kirin_kernel_release/kernel/arch/arm64/include/asm/hwcap.h"
	.file 149 "/mnt/disk/jenkins/ci/workspace/chipset_9.1.0_sne_ine/opensource/component_code/vendor/huawei/extra/build/build_script/kirin_kernel_release/kernel/arch/arm64/include/asm/cpufeature.h"
	.file 150 "/mnt/disk/jenkins/ci/workspace/chipset_9.1.0_sne_ine/opensource/component_code/vendor/huawei/extra/build/build_script/kirin_kernel_release/kernel/arch/arm64/include/asm/virt.h"
	.file 151 "/mnt/disk/jenkins/ci/workspace/chipset_9.1.0_sne_ine/opensource/component_code/vendor/huawei/extra/build/build_script/kirin_kernel_release/kernel/include/linux/highuid.h"
	.file 152 "/mnt/disk/jenkins/ci/workspace/chipset_9.1.0_sne_ine/opensource/component_code/vendor/huawei/extra/build/build_script/kirin_kernel_release/kernel/arch/arm64/include/asm/memory.h"
	.file 153 "/mnt/disk/jenkins/ci/workspace/chipset_9.1.0_sne_ine/opensource/component_code/vendor/huawei/extra/build/build_script/kirin_kernel_release/kernel/include/asm-generic/percpu.h"
	.file 154 "/mnt/disk/jenkins/ci/workspace/chipset_9.1.0_sne_ine/opensource/component_code/vendor/huawei/extra/build/build_script/kirin_kernel_release/kernel/arch/arm64/include/asm/irq.h"
	.file 155 "/mnt/disk/jenkins/ci/workspace/chipset_9.1.0_sne_ine/opensource/component_code/vendor/huawei/extra/build/build_script/kirin_kernel_release/kernel/arch/arm64/include/asm/hardirq.h"
	.file 156 "/mnt/disk/jenkins/ci/workspace/chipset_9.1.0_sne_ine/opensource/component_code/vendor/huawei/extra/build/build_script/kirin_kernel_release/kernel/include/linux/interrupt.h"
	.file 157 "/mnt/disk/jenkins/ci/workspace/chipset_9.1.0_sne_ine/opensource/component_code/vendor/huawei/extra/build/build_script/kirin_kernel_release/kernel/include/asm-generic/pgtable.h"
	.file 158 "/mnt/disk/jenkins/ci/workspace/chipset_9.1.0_sne_ine/opensource/component_code/vendor/huawei/extra/build/build_script/kirin_kernel_release/kernel/include/linux/pm_runtime.h"
	.file 159 "/mnt/disk/jenkins/ci/workspace/chipset_9.1.0_sne_ine/opensource/component_code/vendor/huawei/extra/build/build_script/kirin_kernel_release/kernel/include/linux/debug_locks.h"
	.file 160 "/mnt/disk/jenkins/ci/workspace/chipset_9.1.0_sne_ine/opensource/component_code/vendor/huawei/extra/build/build_script/kirin_kernel_release/kernel/include/scsi/scsi_common.h"
	.file 161 "/mnt/disk/jenkins/ci/workspace/chipset_9.1.0_sne_ine/opensource/component_code/vendor/huawei/extra/build/build_script/kirin_kernel_release/kernel/arch/arm64/include/../../arm/include/asm/xen/hypervisor.h"
	.file 162 "/mnt/disk/jenkins/ci/workspace/chipset_9.1.0_sne_ine/opensource/component_code/vendor/huawei/extra/build/build_script/kirin_kernel_release/kernel/arch/arm64/include/asm/dma-mapping.h"
	.file 163 "/mnt/disk/jenkins/ci/workspace/chipset_9.1.0_sne_ine/opensource/component_code/vendor/huawei/extra/build/build_script/kirin_kernel_release/kernel/include/linux/delay.h"
	.file 164 "/mnt/disk/jenkins/ci/workspace/chipset_9.1.0_sne_ine/opensource/component_code/vendor/huawei/extra/build/build_script/kirin_kernel_release/kernel/include/asm-generic/delay.h"
	.section	.note.GNU-stack,"",%progbits
